Microchip MPLAB XC8 Compiler V2.46

Linker command line:

-W-3 \
  --edf=C:\Program Files\Microchip\xc8\v2.46\pic\dat\20240104201356_en.msgs \
  -cn -h+dist/default/production\Projet_pic18.X.production.sym \
  --cmf=dist/default/production\Projet_pic18.X.production.cmf -z -Q18F4620 \
  -oC:\Users\natha\AppData\Local\Temp\xcAsf6g.\driver_tmp_3.o \
  --defsym=__MPLAB_BUILD=1 --fixupoverflow=error \
  -Mdist/default/production/Projet_pic18.X.production.map \
  --md=C:\Users\natha\AppData\Local\Temp\xcAsf6g.\driver_tmp_0.dat -E1 \
  -ver=XC8 Compiler --acfsm=1493 -ACODE=00h-0FFFFh -ACONST=00h-0FFFFh \
  -ASMALLCONST=01000h-010FFhx240 -AMEDIUMCONST=01000h-0FFFFh \
  -ACOMRAM=01h-07Fh -AABS1=00h-0F7Fh -ABIGRAM=01h-0F7Fh \
  -ARAM=080h-0FFh,0100h-01FFhx14,0F00h-0F7Fh -ABANK0=080h-0FFh \
  -ABANK1=0100h-01FFh -ABANK2=0200h-02FFh -ABANK3=0300h-03FFh \
  -ABANK4=0400h-04FFh -ABANK5=0500h-05FFh -ABANK6=0600h-06FFh \
  -ABANK7=0700h-07FFh -ABANK8=0800h-08FFh -ABANK9=0900h-09FFh \
  -ABANK10=0A00h-0AFFh -ABANK11=0B00h-0BFFh -ABANK12=0C00h-0CFFh \
  -ABANK13=0D00h-0DFFh -ABANK14=0E00h-0EFFh -ABANK15=0F00h-0F7Fh \
  -ASFR=0F80h-0FFFh -ABIGSFR=0F80h-0FFFh -ACONFIG=0300000h-030000Dh \
  -AIDLOC=0200000h-0200007h -AEEDATA=0F00000h-0F003FFh -peeprom_data=EEDATA \
  -preset_vec=00h,intcode=8h,intcodelo,powerup,init -pramtop=01000h \
  -psmallconst=SMALLCONST -pmediumconst=MEDIUMCONST -pconst=CONST \
  -AFARRAM=00h-00h \
  -prdata=COMRAM,nvrram=COMRAM,nvbit=COMRAM,rbss=COMRAM,rbit=COMRAM \
  -pfarbss=FARRAM,fardata=FARRAM,nvFARRAM=FARRAM \
  -pintsave_regs=BIGRAM,bigbss=BIGRAM,bigdata=BIGRAM -pbss=RAM \
  -pidata=CODE,irdata=CODE,ibigdata=CODE,ifardata=CODE -prparam=COMRAM \
  C:\Users\natha\AppData\Local\Temp\xcAsf6g.\driver_tmp_14.o \
  dist/default/production\Projet_pic18.X.production.o 

Object code version is 3.11

Machine type is 18F4620



                Name                               Link     Load   Length Selector   Space Scale
C:\Users\natha\AppData\Local\Temp\xcAsf6g.\driver_tmp_14.o
                config                           300000   300000        E        0       4
                init                                  E        E        4        4       0
                reset_vec                             0        0        4        0       0
dist/default/production\Projet_pic18.X.production.o
                intcode                               8        8        6        4       0
                config                           300000   300000        E        0       4
                temp                                 7E       7E        1        1       1
                mediumconst                        FB5A     FB5A      4A6     7DAD       0
                text196                            C036     C036        E        4       0
                text195                            C078     C078        A        4       0
                text194                            C0AA     C0AA        8        4       0
                text193                            C028     C028        E        4       0
                text192                            C0A2     C0A2        8        4       0
                text191                            C01A     C01A        E        4       0
                text190                            BE8C     BE8C       1E        4       0
                text189                            BDD0     BDD0       22        4       0
                text188                            BF88     BF88       16        4       0
                text187                            BF72     BF72       16        4       0
                text186                            B188     B188       54        4       0
                text185                            BF5C     BF5C       16        4       0
                text184                            B5E0     B5E0       4A        4       0
                text183                            BEE2     BEE2       1C        4       0
                text182                            B0DE     B0DE       56        4       0
                text181                            BEC6     BEC6       1C        4       0
                text180                            9990     9990       C4        4       0
                text179                            A014     A014       B0        4       0
                text178                            7A20     7A20      17A        4       0
                text177                            BFD2     BFD2       10        4       0
                text176                            789A     789A      186        4       0
                text175                            BE6E     BE6E       1E        4       0
                text174                            BAB0     BAB0       34        4       0
                text173                            BF18     BF18       18        4       0
                text172                            C06E     C06E        A        4       0
                text171                            9C88     9C88       BA        4       0
                text170                            B78A     B78A       44        4       0
                text169                            B414     B414       50        4       0
                text168                            9BCE     9BCE       BA        4       0
                text167                            736E     736E      1C0        4       0
                text166                            5F1E     5F1E      39A        4       0
                text165                            A21E     A21E       AA        4       0
                text164                            8DD6     8DD6      104        4       0
                text163                            5758     5758      42A        4       0
                text162                            B9A2     B9A2       38        4       0
                text161                            45DA     45DA      4C0        4       0
                text160                            B700     B700       46        4       0
                text159                            8CD0     8CD0      106        4       0
                text158                            8FDA     8FDA       FE        4       0
                text157                            6DCC     6DCC      212        4       0
                text156                            B088     B088       56        4       0
                text155                            B3C4     B3C4       50        4       0
                text154                            B8C0     B8C0       3A        4       0
                text153                            1B84     1B84      A7C        4       0
                text152                            BD1E     BD1E       26        4       0
                text151                            9800     9800       CA        4       0
                text150                            8268     8268      14E        4       0
                text149                            4EF4     4EF4      438        4       0
                text148                            AE62     AE62       62        4       0
                text147                            BD68     BD68       24        4       0
                text146                            83B6     83B6      142        4       0
                text145                            BE12     BE12       20        4       0
                text144                            AEC4     AEC4       60        4       0
                text143                            BB74     BB74       30        4       0
                text142                            92C8     92C8       F6        4       0
                text141                            BA46     BA46       36        4       0
                text140                            6640     6640      324        4       0
                text139                            AD98     AD98       66        4       0
                text138                            90D8     90D8       FA        4       0
                text137                            76E6     76E6      1B4        4       0
                text136                            7B9A     7B9A      170        4       0
                text135                            B6BA     B6BA       46        4       0
                text134                            ABE2     ABE2       72        4       0
                text133                            BC00     BC00       2E        4       0
                text132                            AA08     AA08       7A        4       0
                text131                            AC54     AC54       6E        4       0
                text130                            AF24     AF24       5C        4       0
                text129                            6FDE     6FDE      1CE        4       0
                text128                            9588     9588       DE        4       0
                text127                            6964     6964      252        4       0
                text126                            B594     B594       4C        4       0
                text125                            A794     A794       84        4       0
                text124                            BA7C     BA7C       34        4       0
                text123                            C09A     C09A        8        4       0
                text122                            C064     C064        A        4       0
                text121                            A5F8     A5F8       8C        4       0
                text120                            A98E     A98E       7A        4       0
                text119                            BD44     BD44       24        4       0
                text118                            93BE     93BE       EC        4       0
                text117                            A0C4     A0C4       AE        4       0
                text116                            7D0A     7D0A      164        4       0
                text115                            C044     C044        C        4       0
                text114                            AB70     AB70       72        4       0
                text113                            BCF8     BCF8       26        4       0
                text112                            B2D2     B2D2       52        4       0
                text111                            ACC2     ACC2       6C        4       0
                text110                            9D42     9D42       B8        4       0
                text109                            C0CA     C0CA        6        4       0
                text108                            BF9E     BF9E       14        4       0
                text107                            C0C4     C0C4        6        4       0
                text106                            BCD2     BCD2       26        4       0
                text105                            B548     B548       4C        4       0
                text104                            B280     B280       52        4       0
                text103                            B746     B746       44        4       0
                text102                            B886     B886       3A        4       0
                text101                            9F62     9F62       B2        4       0
                text100                            7E6E     7E6E      15E        4       0
                text99                             811A     811A      14E        4       0
                text98                             B96A     B96A       38        4       0
                text97                             BCAA     BCAA       28        4       0
                text96                             C05A     C05A        A        4       0
                text95                             C0BE     C0BE        6        4       0
                text94                             C0B8     C0B8        6        4       0
                text93                             8772     8772      120        4       0
                text92                             A914     A914       7A        4       0
                text91                             AAFA     AAFA       76        4       0
                text90                             8892     8892      11E        4       0
                text89                             A4BA     A4BA       A0        4       0
                text88                             AA82     AA82       78        4       0
                text87                             BE50     BE50       1E        4       0
                text86                             BB44     BB44       30        4       0
                text85                             B4FC     B4FC       4C        4       0
                text84                             2E82     2E82      816        4       0
                text83                             3698     3698      578        4       0
                text82                             AD2E     AD2E       6A        4       0
                text81                             BC2E     BC2E       2C        4       0
                text80                             B032     B032       56        4       0
                text79                             BDAE     BDAE       22        4       0
                text78                             BBD2     BBD2       2E        4       0
                text77                               12       12     1064        4       0
                text76                             8636     8636      13C        4       0
                text75                             B932     B932       38        4       0
                text74                             B4B0     B4B0       4C        4       0
                text73                             9734     9734       CC        4       0
                text72                             84F8     84F8      13E        4       0
                text71                             A70E     A70E       86        4       0
                text70                             BFC2     BFC2       10        4       0
                text69                             BB14     BB14       30        4       0
                intcode_body                       91D2     91D2       F6        4       0
                text67                             C050     C050        A        4       0
                text66                             C092     C092        8        4       0
                text65                             C00C     C00C        E        4       0
                text64                             C08A     C08A        8        4       0
                text63                             BFFE     BFFE        E        4       0
                text62                             BE32     BE32       1E        4       0
                text61                             BD8C     BD8C       22        4       0
                text60                             BF46     BF46       16        4       0
                text59                             BF30     BF30       16        4       0
                text58                             AF80     AF80       5A        4       0
                text57                             BEFE     BEFE       1A        4       0
                text56                             B464     B464       4C        4       0
                text55                             BDF2     BDF2       20        4       0
                text54                             89B0     89B0      112        4       0
                text53                             BFB2     BFB2       10        4       0
                text52                             A898     A898       7C        4       0
                text51                             B7CE     B7CE       42        4       0
                text50                             A684     A684       8A        4       0
                text49                             B8FA     B8FA       38        4       0
                text48                             C082     C082        8        4       0
                text47                             BFF0     BFF0        E        4       0
                text46                             A55A     A55A       9E        4       0
                text45                             BA10     BA10       36        4       0
                text44                             5B82     5B82      39C        4       0
                text43                             532C     532C      42C        4       0
                text42                             8AC2     8AC2      108        4       0
                text41                             752E     752E      1B8        4       0
                text40                             B374     B374       50        4       0
                text39                             2600     2600      882        4       0
                text38                             98CA     98CA       C6        4       0
                text37                             9EB0     9EB0       B2        4       0
                text36                             B9DA     B9DA       36        4       0
                text35                             BEAA     BEAA       1C        4       0
                text34                             BFE2     BFE2        E        4       0
                text33                             9B12     9B12       BC        4       0
                text32                             B672     B672       48        4       0
                text31                             B134     B134       54        4       0
                text30                             9A54     9A54       BE        4       0
                text29                             71AC     71AC      1C2        4       0
                text28                             A172     A172       AC        4       0
                text27                             8BCA     8BCA      106        4       0
                text26                             B84C     B84C       3A        4       0
                text25                             4118     4118      4C2        4       0
                text24                             B62A     B62A       48        4       0
                text23                             8EDA     8EDA      100        4       0
                text22                             6BB6     6BB6      216        4       0
                text21                             AFDA     AFDA       58        4       0
                text20                             B22E     B22E       52        4       0
                text19                             B810     B810       3C        4       0
                text18                             1076     1076      B0E        4       0
                text17                             BC82     BC82       28        4       0
                text16                             9666     9666       CE        4       0
                text15                             7FCC     7FCC      14E        4       0
                text14                             4A9A     4A9A      45A        4       0
                text13                             ADFE     ADFE       64        4       0
                text12                             BC5A     BC5A       28        4       0
                text11                             62B8     62B8      388        4       0
                text10                             A2C8     A2C8       A8        4       0
                text9                              C0D4     C0D4        4        4       0
                text8                              A818     A818       80        4       0
                text7                              A416     A416       A4        4       0
                text6                              BAE4     BAE4       30        4       0
                text5                              94AA     94AA       DE        4       0
                text4                              9DFA     9DFA       B6        4       0
                text3                              3C10     3C10      508        4       0
                text2                              B1DC     B1DC       52        4       0
                text1                              B324     B324       50        4       0
                text0                              BBA4     BBA4       2E        4       0
                cstackCOMRAM                          1        1       7D        1       1
                cstackBANK0                          80       80       79       80       1
                cstackBANK1                         100      100       83      100       1
                cstackBANK2                         2CF      2CF       2B      200       1
                cstackBANK3                         384      384       39      300       1
                bssBIGRAM                           3BD      3BD      400      3BD       1
                bssBANK3                            300      300       84      300       1
                dataBANK2                           2FA      2FA        6      200       1
                bssBANK2                            200      200       CF      200       1
                dataBANK1                           1BC      1BC        4      100       1
                bssBANK1                            183      183       39      100       1
                dataBANK0                            FE       FE        2       80       1
                bssBANK0                             F9       F9        5       80       1
                cinit                              A370     A370       A6        4       0
                idataBANK2                         C0B2     C0B2        6        4       0
                idataBANK1                         C0D0     C0D0        4        4       0
                idataBANK0                         C0D8     C0D8        2        4       0

TOTAL           Name                               Link     Load   Length     Space
        CLASS   CODE           
                intcode                               8        8        6         0
                init                                  E        E        4         0
                reset_vec                             0        0        4         0
                text196                            C036     C036        E         0
                text195                            C078     C078        A         0
                text194                            C0AA     C0AA        8         0
                text193                            C028     C028        E         0
                text192                            C0A2     C0A2        8         0
                text191                            C01A     C01A        E         0
                text190                            BE8C     BE8C       1E         0
                text189                            BDD0     BDD0       22         0
                text188                            BF88     BF88       16         0
                text187                            BF72     BF72       16         0
                text186                            B188     B188       54         0
                text185                            BF5C     BF5C       16         0
                text184                            B5E0     B5E0       4A         0
                text183                            BEE2     BEE2       1C         0
                text182                            B0DE     B0DE       56         0
                text181                            BEC6     BEC6       1C         0
                text180                            9990     9990       C4         0
                text179                            A014     A014       B0         0
                text178                            7A20     7A20      17A         0
                text177                            BFD2     BFD2       10         0
                text176                            789A     789A      186         0
                text175                            BE6E     BE6E       1E         0
                text174                            BAB0     BAB0       34         0
                text173                            BF18     BF18       18         0
                text172                            C06E     C06E        A         0
                text171                            9C88     9C88       BA         0
                text170                            B78A     B78A       44         0
                text169                            B414     B414       50         0
                text168                            9BCE     9BCE       BA         0
                text167                            736E     736E      1C0         0
                text166                            5F1E     5F1E      39A         0
                text165                            A21E     A21E       AA         0
                text164                            8DD6     8DD6      104         0
                text163                            5758     5758      42A         0
                text162                            B9A2     B9A2       38         0
                text161                            45DA     45DA      4C0         0
                text160                            B700     B700       46         0
                text159                            8CD0     8CD0      106         0
                text158                            8FDA     8FDA       FE         0
                text157                            6DCC     6DCC      212         0
                text156                            B088     B088       56         0
                text155                            B3C4     B3C4       50         0
                text154                            B8C0     B8C0       3A         0
                text153                            1B84     1B84      A7C         0
                text152                            BD1E     BD1E       26         0
                text151                            9800     9800       CA         0
                text150                            8268     8268      14E         0
                text149                            4EF4     4EF4      438         0
                text148                            AE62     AE62       62         0
                text147                            BD68     BD68       24         0
                text146                            83B6     83B6      142         0
                text145                            BE12     BE12       20         0
                text144                            AEC4     AEC4       60         0
                text143                            BB74     BB74       30         0
                text142                            92C8     92C8       F6         0
                text141                            BA46     BA46       36         0
                text140                            6640     6640      324         0
                text139                            AD98     AD98       66         0
                text138                            90D8     90D8       FA         0
                text137                            76E6     76E6      1B4         0
                text136                            7B9A     7B9A      170         0
                text135                            B6BA     B6BA       46         0
                text134                            ABE2     ABE2       72         0
                text133                            BC00     BC00       2E         0
                text132                            AA08     AA08       7A         0
                text131                            AC54     AC54       6E         0
                text130                            AF24     AF24       5C         0
                text129                            6FDE     6FDE      1CE         0
                text128                            9588     9588       DE         0
                text127                            6964     6964      252         0
                text126                            B594     B594       4C         0
                text125                            A794     A794       84         0
                text124                            BA7C     BA7C       34         0
                text123                            C09A     C09A        8         0
                text122                            C064     C064        A         0
                text121                            A5F8     A5F8       8C         0
                text120                            A98E     A98E       7A         0
                text119                            BD44     BD44       24         0
                text118                            93BE     93BE       EC         0
                text117                            A0C4     A0C4       AE         0
                text116                            7D0A     7D0A      164         0
                text115                            C044     C044        C         0
                text114                            AB70     AB70       72         0
                text113                            BCF8     BCF8       26         0
                text112                            B2D2     B2D2       52         0
                text111                            ACC2     ACC2       6C         0
                text110                            9D42     9D42       B8         0
                text109                            C0CA     C0CA        6         0
                text108                            BF9E     BF9E       14         0
                text107                            C0C4     C0C4        6         0
                text106                            BCD2     BCD2       26         0
                text105                            B548     B548       4C         0
                text104                            B280     B280       52         0
                text103                            B746     B746       44         0
                text102                            B886     B886       3A         0
                text101                            9F62     9F62       B2         0
                text100                            7E6E     7E6E      15E         0
                text99                             811A     811A      14E         0
                text98                             B96A     B96A       38         0
                text97                             BCAA     BCAA       28         0
                text96                             C05A     C05A        A         0
                text95                             C0BE     C0BE        6         0
                text94                             C0B8     C0B8        6         0
                text93                             8772     8772      120         0
                text92                             A914     A914       7A         0
                text91                             AAFA     AAFA       76         0
                text90                             8892     8892      11E         0
                text89                             A4BA     A4BA       A0         0
                text88                             AA82     AA82       78         0
                text87                             BE50     BE50       1E         0
                text86                             BB44     BB44       30         0
                text85                             B4FC     B4FC       4C         0
                text84                             2E82     2E82      816         0
                text83                             3698     3698      578         0
                text82                             AD2E     AD2E       6A         0
                text81                             BC2E     BC2E       2C         0
                text80                             B032     B032       56         0
                text79                             BDAE     BDAE       22         0
                text78                             BBD2     BBD2       2E         0
                text77                               12       12     1064         0
                text76                             8636     8636      13C         0
                text75                             B932     B932       38         0
                text74                             B4B0     B4B0       4C         0
                text73                             9734     9734       CC         0
                text72                             84F8     84F8      13E         0
                text71                             A70E     A70E       86         0
                text70                             BFC2     BFC2       10         0
                text69                             BB14     BB14       30         0
                intcode_body                       91D2     91D2       F6         0
                text67                             C050     C050        A         0
                text66                             C092     C092        8         0
                text65                             C00C     C00C        E         0
                text64                             C08A     C08A        8         0
                text63                             BFFE     BFFE        E         0
                text62                             BE32     BE32       1E         0
                text61                             BD8C     BD8C       22         0
                text60                             BF46     BF46       16         0
                text59                             BF30     BF30       16         0
                text58                             AF80     AF80       5A         0
                text57                             BEFE     BEFE       1A         0
                text56                             B464     B464       4C         0
                text55                             BDF2     BDF2       20         0
                text54                             89B0     89B0      112         0
                text53                             BFB2     BFB2       10         0
                text52                             A898     A898       7C         0
                text51                             B7CE     B7CE       42         0
                text50                             A684     A684       8A         0
                text49                             B8FA     B8FA       38         0
                text48                             C082     C082        8         0
                text47                             BFF0     BFF0        E         0
                text46                             A55A     A55A       9E         0
                text45                             BA10     BA10       36         0
                text44                             5B82     5B82      39C         0
                text43                             532C     532C      42C         0
                text42                             8AC2     8AC2      108         0
                text41                             752E     752E      1B8         0
                text40                             B374     B374       50         0
                text39                             2600     2600      882         0
                text38                             98CA     98CA       C6         0
                text37                             9EB0     9EB0       B2         0
                text36                             B9DA     B9DA       36         0
                text35                             BEAA     BEAA       1C         0
                text34                             BFE2     BFE2        E         0
                text33                             9B12     9B12       BC         0
                text32                             B672     B672       48         0
                text31                             B134     B134       54         0
                text30                             9A54     9A54       BE         0
                text29                             71AC     71AC      1C2         0
                text28                             A172     A172       AC         0
                text27                             8BCA     8BCA      106         0
                text26                             B84C     B84C       3A         0
                text25                             4118     4118      4C2         0
                text24                             B62A     B62A       48         0
                text23                             8EDA     8EDA      100         0
                text22                             6BB6     6BB6      216         0
                text21                             AFDA     AFDA       58         0
                text20                             B22E     B22E       52         0
                text19                             B810     B810       3C         0
                text18                             1076     1076      B0E         0
                text17                             BC82     BC82       28         0
                text16                             9666     9666       CE         0
                text15                             7FCC     7FCC      14E         0
                text14                             4A9A     4A9A      45A         0
                text13                             ADFE     ADFE       64         0
                text12                             BC5A     BC5A       28         0
                text11                             62B8     62B8      388         0
                text10                             A2C8     A2C8       A8         0
                text9                              C0D4     C0D4        4         0
                text8                              A818     A818       80         0
                text7                              A416     A416       A4         0
                text6                              BAE4     BAE4       30         0
                text5                              94AA     94AA       DE         0
                text4                              9DFA     9DFA       B6         0
                text3                              3C10     3C10      508         0
                text2                              B1DC     B1DC       52         0
                text1                              B324     B324       50         0
                text0                              BBA4     BBA4       2E         0
                cinit                              A370     A370       A6         0
                idataBANK2                         C0B2     C0B2        6         0
                idataBANK1                         C0D0     C0D0        4         0
                idataBANK0                         C0D8     C0D8        2         0

        CLASS   CONST          

        CLASS   SMALLCONST     

        CLASS   MEDIUMCONST    
                mediumconst                        FB5A     FB5A      4A6         0

        CLASS   COMRAM         
                temp                                 7E       7E        1         1
                cstackCOMRAM                          1        1       7D         1

        CLASS   ABS1           

        CLASS   BIGRAM         
                bssBIGRAM                           3BD      3BD      400         1

        CLASS   RAM            

        CLASS   BANK0          
                cstackBANK0                          80       80       79         1
                dataBANK0                            FE       FE        2         1
                bssBANK0                             F9       F9        5         1

        CLASS   BANK1          
                cstackBANK1                         100      100       83         1
                dataBANK1                           1BC      1BC        4         1
                bssBANK1                            183      183       39         1

        CLASS   BANK2          
                cstackBANK2                         2CF      2CF       2B         1
                dataBANK2                           2FA      2FA        6         1
                bssBANK2                            200      200       CF         1

        CLASS   BANK3          
                cstackBANK3                         384      384       39         1
                bssBANK3                            300      300       84         1

        CLASS   BANK4          

        CLASS   BANK5          

        CLASS   BANK6          

        CLASS   BANK7          

        CLASS   BANK8          

        CLASS   BANK9          

        CLASS   BANK10         

        CLASS   BANK11         

        CLASS   BANK12         

        CLASS   BANK13         

        CLASS   BANK14         

        CLASS   BANK15         

        CLASS   SFR            

        CLASS   BIGSFR         

        CLASS   CONFIG         
                config                           300000   300000        E         4

        CLASS   IDLOC          

        CLASS   EEDATA         

        CLASS   FARRAM         

        CLASS   HEAP           

        CLASS   STACK          



SEGMENTS        Name                           Load    Length   Top    Selector   Space  Class

                reset_vec                      000000  000004  000004         0       0  CODE    
                cstackCOMRAM                   000001  00007E  00007F         1       1  COMRAM  
                intcode                        000008  00C0D2  00C0DA         4       0  CODE    
                cstackBANK0                    000080  000080  000100        80       1  BANK0   
                cstackBANK1                    000100  0000C0  0001C0       100       1  BANK1   
                bssBANK2                       000200  000100  000300       200       1  BANK2   
                bssBANK3                       000300  0000BD  0003BD       300       1  BANK3   
                bssBIGRAM                      0003BD  000400  0007BD       3BD       1  BIGRAM  
                mediumconst                    00FB5A  0004A6  010000      7DAD       0  MEDIUMCO


UNUSED ADDRESS RANGES

        Name                Unused          Largest block    Delta
        BANK1            0001C0-0001FF               40
        BANK10           000A00-000AFF              100
        BANK11           000B00-000BFF              100
        BANK12           000C00-000CFF              100
        BANK13           000D00-000DFF              100
        BANK14           000E00-000EFF              100
        BANK15           000F00-000F7F               80
        BANK7            0007BD-0007FF               43
        BANK8            000800-0008FF              100
        BANK9            000900-0009FF              100
        BIGRAM           00007F-00007F                1
                         0001C0-0001FF               40
                         0007BD-000F7F              7C3
        BIGSFR           000F80-000FFF               80
        CODE             000004-000007                4
                         00C0DA-00FB59             3A80
        COMRAM           00007F-00007F                1
        CONST            000004-000007                4
                         00C0DA-00FB59             3A80
        EEDATA           F00000-F003FF              400
        IDLOC            200000-200007                8
        MEDIUMCONST      00C0DA-00FB59             3A80
        RAM              0001C0-0001FF               40
                         0007BD-000F7F              100
        SFR              000F80-000FFF               80
        SMALLCONST       00C0DA-00FB59              100

                                  Symbol Table

?_Get_DS1307_RTC_Date                                 cstackCOMRAM 000010
?_Get_DS1307_RTC_Time                                 cstackCOMRAM 000010
?_OneWireTemp                                         cstackCOMRAM 000028
?___awdiv                                             cstackBANK1  000140
?___awmod                                             cstackBANK1  000140
?___fladd                                             cstackBANK1  000167
?___fldiv                                             cstackBANK1  00014E
?___flmul                                             cstackBANK1  00014E
?___flneg                                             cstackBANK1  000140
?___flsub                                             cstackBANK1  000177
?___fltol                                             cstackBANK1  000167
?___fpclassifyf                                       cstackBANK1  000140
?___lmul                                              cstackCOMRAM 000001
?___wmul                                              cstackBANK1  000140
?___xxtofl                                            cstackBANK1  000140
?_abs                                                 cstackBANK1  000146
?_atoi                                                cstackCOMRAM 000007
?_dtoa                                                cstackBANK1  00015B
?_efgtoa                                              cstackBANK2  0002CF
?_floorf                                              cstackBANK1  000167
?_isdigit                                             cstackCOMRAM 000001
?_isxdigit                                            cstackCOMRAM 000001
?_labs                                                cstackBANK1  000140
?_nanf                                                cstackCOMRAM 000001
?_pad                                                 cstackBANK1  000152
?_printf                                              cstackBANK2  0002EC
?_read_prec_or_width                                  cstackBANK1  000146
?_snprintf                                            cstackBANK0  0000B4
?_strchr                                              cstackCOMRAM 000001
?_strlen                                              cstackBANK1  000140
?_strncmp                                             cstackCOMRAM 000005
?_strtof                                              cstackCOMRAM 000065
?_toupper                                             cstackCOMRAM 000001
?_vfpfcnvrt                                           cstackBANK2  0002D6
?_vfprintf                                            cstackBANK2  0002E4
?_xtoa                                                cstackBANK1  00015B
?i2___awdiv                                           cstackCOMRAM 000001
?i2___awmod                                           cstackCOMRAM 000001
?i2___fladd                                           cstackCOMRAM 000028
?i2___fldiv                                           cstackCOMRAM 00000F
?i2___flmul                                           cstackCOMRAM 000040
?i2___flneg                                           cstackCOMRAM 000001
?i2___flsub                                           cstackCOMRAM 000038
?i2___fltol                                           cstackCOMRAM 000059
?i2___fpclassifyf                                     cstackCOMRAM 000001
?i2___wmul                                            cstackCOMRAM 000001
?i2___xxtofl                                          cstackCOMRAM 000001
?i2_abs                                               cstackCOMRAM 000007
?i2_dtoa                                              cstackCOMRAM 00001C
?i2_efgtoa                                            cstackCOMRAM 000065
?i2_floorf                                            cstackCOMRAM 000028
?i2_labs                                              cstackCOMRAM 000001
?i2_pad                                               cstackCOMRAM 000013
?i2_printf                                            cstackBANK0  0000B4
?i2_read_prec_or_width                                cstackCOMRAM 000007
?i2_strlen                                            cstackCOMRAM 000001
?i2_vfpfcnvrt                                         cstackCOMRAM 00006E
?i2_vfprintf                                          cstackBANK0  0000AC
?i2_xtoa                                              cstackCOMRAM 00001C
DisplayDateOnLCD@pDate                                cstackCOMRAM 00000B
DisplayDateOnLCD@tens                                 cstackCOMRAM 00000E
DisplayDateOnLCD@units                                cstackCOMRAM 00000F
DisplayTimeToLCD@pTime                                cstackCOMRAM 00000B
DisplayTimeToLCD@tens                                 cstackCOMRAM 00000E
DisplayTimeToLCD@units                                cstackCOMRAM 00000F
Get_DS1307_RTC_Date@Temp                              cstackCOMRAM 00001D
Get_DS1307_RTC_Date@currentDate                       cstackCOMRAM 000019
Get_DS1307_RTC_Date@pRTCArray                         cstackCOMRAM 000015
Get_DS1307_RTC_Time@Temp                              cstackCOMRAM 000018
Get_DS1307_RTC_Time@currentTime                       cstackCOMRAM 000019
Get_DS1307_RTC_Time@pRTCArray                         cstackCOMRAM 000015
I2C_ReadFromAddress@deviceAddress                     cstackBANK1  000144
I2C_ReadRegister@deviceAddress                        cstackCOMRAM 000009
I2C_ReadRegister@registerAddress                      cstackCOMRAM 000007
I2C_ReadRegister@result                               cstackCOMRAM 000008
I2C_ReadResult@readback                               cstackBANK1  000142
I2C_ReadResult@x                                      cstackBANK1  000140
I2C_ReadResult_withAck@readback                       cstackCOMRAM 000003
I2C_ReadResult_withAck@x                              cstackCOMRAM 000001
I2C_WriteByte@temp                                    cstackBANK1  000143
I2C_WriteByte@theByte                                 cstackBANK1  000140
I2C_WriteByte@x                                       cstackBANK1  000141
I2C_WriteToAddress@deviceAddress                      cstackBANK1  000144
I2C_WriteToAddress@temp                               cstackBANK1  000145
LCD_CMD@CMD                                           cstackBANK1  000147
LCD_Init@I2C_Add                                      cstackBANK1  00014A
LCD_Set_Cursor@COL                                    cstackCOMRAM 000009
LCD_Set_Cursor@ROW                                    cstackCOMRAM 00000A
LCD_Write_4Bit@Nibble                                 cstackBANK1  000146
LCD_Write_Char@Data                                   cstackCOMRAM 000008
OneWireReadBit@out                                    cstackCOMRAM 000001
OneWireReadByte@i                                     cstackCOMRAM 000003
OneWireReadByte@out                                   cstackCOMRAM 000005
OneWireTemp@LSB                                       cstackCOMRAM 000034
OneWireTemp@MSB                                       cstackCOMRAM 000035
OneWireTemp@data                                      cstackCOMRAM 000032
OneWireTemp@temperature                               cstackCOMRAM 00002E
OneWireWriteBit@b                                     cstackCOMRAM 000001
OneWireWriteByte@b                                    cstackCOMRAM 000004
OneWireWriteByte@i                                    cstackCOMRAM 000002
Read_Bytes_From_DS1307_RTC@Address                    cstackCOMRAM 00000D
Read_Bytes_From_DS1307_RTC@NoOfBytes                  cstackCOMRAM 00000B
Read_Bytes_From_DS1307_RTC@i                          cstackCOMRAM 00000E
Read_Bytes_From_DS1307_RTC@pData                      cstackCOMRAM 00000A
SD_ACMD@arg                                           cstackBANK1  00014A
SD_ACMD@cmd                                           cstackBANK1  00014E
SD_Command@arg                                        cstackBANK1  000143
SD_Command@cmd                                        cstackBANK1  000148
SD_Command@n                                          cstackBANK1  000147
SD_Command@response                                   cstackBANK1  000149
SD_EraseBlocks@firstBlock                             cstackCOMRAM 00000B
SD_EraseBlocks@lastBlock                              cstackCOMRAM 00000F
SD_MBR_Receive@bufReceive                             cstackCOMRAM 000004
SD_MBR_Receive@i                                      cstackCOMRAM 000006
SD_MBR_Start@response                                 cstackCOMRAM 000010
SD_MBR_Start@startBlock                               cstackCOMRAM 00000B
SD_SendDummyBytes@n                                   cstackCOMRAM 000005
SD_SendDummyBytes@numBytes                            cstackCOMRAM 000004
SD_SingleBlockWrite@arr                               cstackCOMRAM 00000F
SD_SingleBlockWrite@block                             cstackCOMRAM 00000B
SD_SingleBlockWrite@i                                 cstackCOMRAM 000013
SD_SingleBlockWrite@response                          cstackCOMRAM 000012
SSD1306_ClearDisplay@i                                cstackCOMRAM 000008
SSD1306_GotoXY@x                                      cstackCOMRAM 000002
SSD1306_GotoXY@y                                      cstackCOMRAM 000001
SSD1306_Init@i2caddr                                  cstackCOMRAM 000008
SSD1306_Init@vccstate                                 cstackCOMRAM 000009
SSD1306_PutStretchC@F3526                             bssBANK2     00023C
SSD1306_PutStretchC@b                                 cstackCOMRAM 00000F
SSD1306_PutStretchC@bn                                cstackCOMRAM 000014
SSD1306_PutStretchC@bn_1376                           cstackCOMRAM 000019
SSD1306_PutStretchC@c                                 cstackCOMRAM 00001C
SSD1306_PutStretchC@font_c                            cstackCOMRAM 000017
SSD1306_PutStretchC@i                                 cstackCOMRAM 000015
SSD1306_PutStretchC@i_1367                            cstackCOMRAM 00001B
SSD1306_PutStretchC@i_1371                            cstackCOMRAM 00001D
SSD1306_PutStretchC@i_1375                            cstackCOMRAM 000016
SSD1306_PutStretchC@offs                              cstackCOMRAM 000018
SSD1306_PutStretchC@p                                 cstackCOMRAM 00001A
SSD1306_PutStretchC@pos                               cstackCOMRAM 000013
SSD1306_PutStretchC@size_mult                         cstackCOMRAM 000009
Timer1_DefaultInterruptHandler@cpt_ms_buzzer          bssBANK2     000262
Timer1_DefaultInterruptHandler@cpt_ms_lcd             bssBANK2     000266
Timer1_DefaultInterruptHandler@cpt_ms_oled            bssBANK2     000264
Timer1_DefaultInterruptHandler@cpt_ms_sd              bssBANK2     000240
Timer1_DefaultInterruptHandler@cpt_ms_temp_management bssBANK0     0000FB
Timer1_Init@_timer                                    cstackBANK1  000142
Timer1_Mode_Selection@_timer                          cstackBANK1  000140
USART_ASYNCRONOUS_RX_Init@_usart                      cstackBANK1  000140
USART_ASYNCRONOUS_TX_Init@_usart                      cstackBANK1  000140
USART_Asynchronous_Initialize@_usart                  cstackBANK2  0002CF
USART_Asynchronous_Initialize@ret                     cstackBANK2  0002D1
USART_Asynchronous_ReadByte_NonBlocking@_data         cstackCOMRAM 000001
USART_Asynchronous_ReadByte_NonBlocking@ret           cstackCOMRAM 000002
USART_Asynchronous_WriteByte_Blocking@_data           cstackBANK1  000140
USART_Baud_Rate_Calculation@Baud_Rate_Temp_Value      cstackBANK1  00017B
USART_Baud_Rate_Calculation@_usart                    cstackBANK1  000177
USART_FramingDefaultErrorHandler@_data_               cstackCOMRAM 000003
USART_RxDefaultInterruptHandler@i                     cstackBANK1  000130
_ACMD22                                               mediumconst  00FD3E
_BAUDCONbits                                          (abs)        000FB8
_BackLight_State                                      dataBANK1    0001BF
_CCP1CON                                              (abs)        000FBD
_CCPR1L                                               (abs)        000FBE
_CMD13                                                mediumconst  00FD49
_DisplayDateOnLCD                                     text178      007A20
_DisplayTimeToLCD                                     text176      00789A
_Font                                                 mediumconst  00FB5B
_Font2                                                mediumconst  00FC5A
_Get_DS1307_RTC_Date                                  text111      00ACC2
_Get_DS1307_RTC_Time                                  text110      009D42
_I2C_Delay                                            text67       00C050
_I2C_ReadFromAddress                                  text53       00BFB2
_I2C_ReadRegister                                     text113      00BCF8
_I2C_ReadResult                                       text52       00A898
_I2C_ReadResult_withAck                               text92       00A914
_I2C_SendOne                                          text60       00BF46
_I2C_SendZero                                         text59       00BF30
_I2C_Start                                            text62       00BE32
_I2C_Stop                                             text61       00BD8C
_I2C_WriteByte                                        text58       00AF80
_I2C_WriteToAddress                                   text57       00BEFE
_INTCONbits                                           (abs)        000FF2
_InterruptManager                                     intcode      000008
_LATAbits                                             (abs)        000F89
_LATEbits                                             (abs)        000F8D
_LCD_CMD                                              text55       00BDF2
_LCD_Clear                                            text177      00BFD2
_LCD_Init                                             text54       0089B0
_LCD_Set_Cursor                                       text182      00B0DE
_LCD_Write_4Bit                                       text56       00B464
_LCD_Write_Char                                       text181      00BEC6
_OSCCON                                               (abs)        000FD3
_OSCCONbits                                           (abs)        000FD3
_OSCTUNE                                              (abs)        000F9B
_OneWireHigh                                          text109      00C0CA
_OneWireRead                                          text108      00BF9E
_OneWireReadBit                                       text106      00BCD2
_OneWireReadByte                                      text105      00B548
_OneWireRelease                                       text107      00C0C4
_OneWireReset                                         text104      00B280
_OneWireTemp                                          text101      009F62
_OneWireWriteBit                                      text103      00B746
_OneWireWriteByte                                     text102      00B886
_PIE1bits                                             (abs)        000F9D
_PIR1bits                                             (abs)        000F9E
_PORTA                                                (abs)        000F80
_PORTCbits                                            (abs)        000F82
_PORTD                                                (abs)        000F83
_PORTDbits                                            (abs)        000F83
_PORTE                                                (abs)        000F84
_PR2                                                  (abs)        000FCB
_RCREG                                                (abs)        000FAE
_RCSTAbits                                            (abs)        000FAB
_RS                                                   bssBANK1     0001BA
_Read_Bytes_From_DS1307_RTC                           text112      00B2D2
_SCL_High                                             text66       00C092
_SCL_Low                                              text65       00C00C
_SDA_High                                             text64       00C08A
_SDA_Low                                              text63       00BFFE
_SDCard                                               bssBANK1     000183
_SD_ACMD                                              text45       00BA10
_SD_Command                                           text46       00A55A
_SD_EraseBlocks                                       text120      00A98E
_SD_MBR_Receive                                       text89       00A4BA
_SD_MBR_Start                                         text88       00AA82
_SD_MBR_Stop                                          text87       00BE50
_SD_SendDummyBytes                                    text119      00BD44
_SD_SingleBlockWrite                                  text118      0093BE
_SDreadBuffer                                         bssBIGRAM    0003BD
_SDwriteBuffer                                        bssBIGRAM    0005BD
_SPBRG                                                (abs)        000FAF
_SPBRGH                                               (abs)        000FB0
_SSD1306_ClearDisplay                                 text144      00AEC4
_SSD1306_GotoXY                                       text143      00BB74
_SSD1306_Init                                         text142      0092C8
_SSD1306_PutStretchC                                  text140      006640
_SSPBUF                                               (abs)        000FC9
_SSPCON1                                              (abs)        000FC6
_SSPCON1bits                                          (abs)        000FC6
_SSPIF                                                (abs)        007CF3
_SSPSTAT                                              (abs)        000FC7
_SSPSTATbits                                          (abs)        000FC7
_T0CONbits                                            (abs)        000FD5
_T1CONbits                                            (abs)        000FCD
_T2CON                                                (abs)        000FCA
_T2CONbits                                            (abs)        000FCA
_TMR0H                                                (abs)        000FD7
_TMR0L                                                (abs)        000FD6
_TMR0_ISR                                             text196      00C036
_TMR0_InterruptHandler                                bssBANK2     000256
_TMR1H                                                (abs)        000FCF
_TMR1L                                                (abs)        000FCE
_TMR1_ISR                                             text98       00B96A
_TMR1_InterruptHandler                                bssBANK2     000252
_TMR2                                                 (abs)        000FCC
_TRISA                                                (abs)        000F92
_TRISAbits                                            (abs)        000F92
_TRISCbits                                            (abs)        000F94
_TRISD                                                (abs)        000F95
_TRISDbits                                            (abs)        000F95
_TRISEbits                                            (abs)        000F96
_TXREG                                                (abs)        000FAD
_TXSTAbits                                            (abs)        000FAC
_Temp                                                 bssBANK1     0001BB
_Timer1_DefaultInterruptHandler                       text99       00811A
_Timer1_Init                                          text7        00A416
_Timer1_Mode_Selection                                text8        00A818
_USART_ASYNCRONOUS_RX_Init                            text5        0094AA
_USART_ASYNCRONOUS_TX_Init                            text4        009DFA
_USART_Asynchronous_Initialize                        text2        00B1DC
_USART_Asynchronous_ReadByte_NonBlocking              text97       00BCAA
_USART_Asynchronous_Restart_RX                        text95       00C0BE
_USART_Asynchronous_WriteByte_Blocking                text35       00BEAA
_USART_Baud_Rate_Calculation                          text3        003C10
_USART_Baud_Rate_Calculation$4353                     cstackBANK1  00017F
_USART_FramingDefaultErrorHandler                     text96       00C05A
_USART_FramingErrorHandler                            bssBANK2     00025C
_USART_OverrunDefaultErrorHandler                     text94       00C0B8
_USART_OverrunErrorHandler                            bssBANK2     00025A
_USART_RX_ISR                                         text71       00A70E
_USART_RxDefaultInterruptHandler                      text72       0084F8
_USART_RxDefaultInterruptHandler@hal_usart$F952       bssBANK2     00025E
_USART_TX_ISR                                         text69       00BB14
_USART_TxDefaultInterruptHandler                      text70       00BFC2
_USART_TxDefaultInterruptHandler@hal_usart$F947       bssBANK2     000260
__HRAM                                                (abs)        000000
__H__absolute__                                       __absolute__ 000000
__Habs1                                               abs1         000000
__Hbank0                                              bank0        000000
__Hbank1                                              bank1        000000
__Hbank10                                             bank10       000000
__Hbank11                                             bank11       000000
__Hbank12                                             bank12       000000
__Hbank13                                             bank13       000000
__Hbank14                                             bank14       000000
__Hbank15                                             bank15       000000
__Hbank2                                              bank2        000000
__Hbank3                                              bank3        000000
__Hbank4                                              bank4        000000
__Hbank5                                              bank5        000000
__Hbank6                                              bank6        000000
__Hbank7                                              bank7        000000
__Hbank8                                              bank8        000000
__Hbank9                                              bank9        000000
__Hbigbss                                             bigbss       000000
__Hbigdata                                            bigdata      000000
__Hbigram                                             bigram       000000
__Hbigsfr                                             bigsfr       000000
__Hbss                                                bss          000000
__HbssBANK0                                           bssBANK0     000000
__HbssBANK1                                           bssBANK1     000000
__HbssBANK2                                           bssBANK2     000000
__HbssBANK3                                           bssBANK3     000000
__HbssBIGRAM                                          bssBIGRAM    000000
__Hcinit                                              cinit        000000
__Hclrtext                                            clrtext      000000
__Hcomram                                             comram       000000
__Hconfig                                             config       30000E
__Hconst                                              const        000000
__HcstackBANK0                                        cstackBANK0  000000
__HcstackBANK1                                        cstackBANK1  000000
__HcstackBANK2                                        cstackBANK2  000000
__HcstackBANK3                                        cstackBANK3  000000
__HcstackCOMRAM                                       cstackCOMRAM 000000
__Hdata                                               data         000000
__HdataBANK0                                          dataBANK0    000000
__HdataBANK1                                          dataBANK1    000000
__HdataBANK2                                          dataBANK2    000000
__Heeprom_data                                        eeprom_data  000000
__Hfarbss                                             farbss       000000
__Hfardata                                            fardata      000000
__Hheap                                               heap         000000
__Hibigdata                                           ibigdata     000000
__Hidata                                              idata        000000
__HidataBANK0                                         idataBANK0   000000
__HidataBANK1                                         idataBANK1   000000
__HidataBANK2                                         idataBANK2   000000
__Hidloc                                              idloc        000000
__Hifardata                                           ifardata     000000
__Hinit                                               init         000012
__Hintcode                                            intcode      00000E
__Hintcode_body                                       intcode_body 000000
__Hintcodelo                                          intcodelo    00000E
__Hintentry                                           intentry     000000
__Hintret                                             intret       000000
__Hintsave_regs                                       intsave_regs 000000
__Hirdata                                             irdata       000000
__Hmediumconst                                        mediumconst  010000
__HnvFARRAM                                           nvFARRAM     000000
__Hnvbit                                              nvbit        000000
__Hnvrram                                             nvrram       000000
__Hparam                                              rparam       000000
__Hpowerup                                            powerup      00000E
__Hram                                                ram          000000
__Hramtop                                             ramtop       001000
__Hrbit                                               rbit         000000
__Hrbss                                               rbss         000000
__Hrdata                                              rdata        000000
__Hreset_vec                                          reset_vec    000004
__Hrparam                                             rparam       000000
__Hsfr                                                sfr          000000
__Hsivt_hi                                            sivt_hi      000000
__Hsivt_lo                                            sivt_lo      000000
__Hsmallconst                                         smallconst   000000
__Hspace_0                                            (abs)        010000
__Hspace_1                                            (abs)        0007BD
__Hspace_2                                            (abs)        000000
__Hspace_4                                            (abs)        60000E
__Hstack                                              stack        000000
__Hstruct                                             struct       000000
__Htemp                                               temp         00007F
__Htext                                               text         000000
__Htext0                                              text0        000000
__Htext1                                              text1        000000
__Htext10                                             text10       000000
__Htext100                                            text100      000000
__Htext101                                            text101      000000
__Htext102                                            text102      000000
__Htext103                                            text103      000000
__Htext104                                            text104      000000
__Htext105                                            text105      000000
__Htext106                                            text106      000000
__Htext107                                            text107      000000
__Htext108                                            text108      000000
__Htext109                                            text109      000000
__Htext11                                             text11       000000
__Htext110                                            text110      000000
__Htext111                                            text111      000000
__Htext112                                            text112      000000
__Htext113                                            text113      000000
__Htext114                                            text114      000000
__Htext115                                            text115      000000
__Htext116                                            text116      000000
__Htext117                                            text117      000000
__Htext118                                            text118      000000
__Htext119                                            text119      000000
__Htext12                                             text12       000000
__Htext120                                            text120      000000
__Htext121                                            text121      000000
__Htext122                                            text122      000000
__Htext123                                            text123      000000
__Htext124                                            text124      000000
__Htext125                                            text125      000000
__Htext126                                            text126      000000
__Htext127                                            text127      000000
__Htext128                                            text128      000000
__Htext129                                            text129      000000
__Htext13                                             text13       000000
__Htext130                                            text130      000000
__Htext131                                            text131      000000
__Htext132                                            text132      000000
__Htext133                                            text133      000000
__Htext134                                            text134      000000
__Htext135                                            text135      000000
__Htext136                                            text136      000000
__Htext137                                            text137      000000
__Htext138                                            text138      000000
__Htext139                                            text139      000000
__Htext14                                             text14       000000
__Htext140                                            text140      000000
__Htext141                                            text141      000000
__Htext142                                            text142      000000
__Htext143                                            text143      000000
__Htext144                                            text144      000000
__Htext145                                            text145      000000
__Htext146                                            text146      000000
__Htext147                                            text147      000000
__Htext148                                            text148      000000
__Htext149                                            text149      000000
__Htext15                                             text15       000000
__Htext150                                            text150      000000
__Htext151                                            text151      000000
__Htext152                                            text152      000000
__Htext153                                            text153      000000
__Htext154                                            text154      000000
__Htext155                                            text155      000000
__Htext156                                            text156      000000
__Htext157                                            text157      000000
__Htext158                                            text158      000000
__Htext159                                            text159      000000
__Htext16                                             text16       000000
__Htext160                                            text160      000000
__Htext161                                            text161      000000
__Htext162                                            text162      000000
__Htext163                                            text163      000000
__Htext164                                            text164      000000
__Htext165                                            text165      000000
__Htext166                                            text166      000000
__Htext167                                            text167      000000
__Htext168                                            text168      000000
__Htext169                                            text169      000000
__Htext17                                             text17       000000
__Htext170                                            text170      000000
__Htext171                                            text171      000000
__Htext172                                            text172      000000
__Htext173                                            text173      000000
__Htext174                                            text174      000000
__Htext175                                            text175      000000
__Htext176                                            text176      000000
__Htext177                                            text177      000000
__Htext178                                            text178      000000
__Htext179                                            text179      000000
__Htext18                                             text18       000000
__Htext180                                            text180      000000
__Htext181                                            text181      000000
__Htext182                                            text182      000000
__Htext183                                            text183      000000
__Htext184                                            text184      000000
__Htext185                                            text185      000000
__Htext186                                            text186      000000
__Htext187                                            text187      000000
__Htext188                                            text188      000000
__Htext189                                            text189      000000
__Htext19                                             text19       000000
__Htext190                                            text190      000000
__Htext191                                            text191      000000
__Htext192                                            text192      000000
__Htext193                                            text193      000000
__Htext194                                            text194      000000
__Htext195                                            text195      000000
__Htext196                                            text196      000000
__Htext2                                              text2        000000
__Htext20                                             text20       000000
__Htext21                                             text21       000000
__Htext22                                             text22       000000
__Htext23                                             text23       000000
__Htext24                                             text24       000000
__Htext25                                             text25       000000
__Htext26                                             text26       000000
__Htext27                                             text27       000000
__Htext28                                             text28       000000
__Htext29                                             text29       000000
__Htext3                                              text3        000000
__Htext30                                             text30       000000
__Htext31                                             text31       000000
__Htext32                                             text32       000000
__Htext33                                             text33       000000
__Htext34                                             text34       000000
__Htext35                                             text35       000000
__Htext36                                             text36       000000
__Htext37                                             text37       000000
__Htext38                                             text38       000000
__Htext39                                             text39       000000
__Htext4                                              text4        000000
__Htext40                                             text40       000000
__Htext41                                             text41       000000
__Htext42                                             text42       000000
__Htext43                                             text43       000000
__Htext44                                             text44       000000
__Htext45                                             text45       000000
__Htext46                                             text46       000000
__Htext47                                             text47       000000
__Htext48                                             text48       000000
__Htext49                                             text49       000000
__Htext5                                              text5        000000
__Htext50                                             text50       000000
__Htext51                                             text51       000000
__Htext52                                             text52       000000
__Htext53                                             text53       000000
__Htext54                                             text54       000000
__Htext55                                             text55       000000
__Htext56                                             text56       000000
__Htext57                                             text57       000000
__Htext58                                             text58       000000
__Htext59                                             text59       000000
__Htext6                                              text6        000000
__Htext60                                             text60       000000
__Htext61                                             text61       000000
__Htext62                                             text62       000000
__Htext63                                             text63       000000
__Htext64                                             text64       000000
__Htext65                                             text65       000000
__Htext66                                             text66       000000
__Htext67                                             text67       000000
__Htext69                                             text69       000000
__Htext7                                              text7        000000
__Htext70                                             text70       000000
__Htext71                                             text71       000000
__Htext72                                             text72       000000
__Htext73                                             text73       000000
__Htext74                                             text74       000000
__Htext75                                             text75       000000
__Htext76                                             text76       000000
__Htext77                                             text77       000000
__Htext78                                             text78       000000
__Htext79                                             text79       000000
__Htext8                                              text8        000000
__Htext80                                             text80       000000
__Htext81                                             text81       000000
__Htext82                                             text82       000000
__Htext83                                             text83       000000
__Htext84                                             text84       000000
__Htext85                                             text85       000000
__Htext86                                             text86       000000
__Htext87                                             text87       000000
__Htext88                                             text88       000000
__Htext89                                             text89       000000
__Htext9                                              text9        000000
__Htext90                                             text90       000000
__Htext91                                             text91       000000
__Htext92                                             text92       000000
__Htext93                                             text93       000000
__Htext94                                             text94       000000
__Htext95                                             text95       000000
__Htext96                                             text96       000000
__Htext97                                             text97       000000
__Htext98                                             text98       000000
__Htext99                                             text99       000000
__LRAM                                                (abs)        000001
__L__absolute__                                       __absolute__ 000000
__Labs1                                               abs1         000000
__Lbank0                                              bank0        000000
__Lbank1                                              bank1        000000
__Lbank10                                             bank10       000000
__Lbank11                                             bank11       000000
__Lbank12                                             bank12       000000
__Lbank13                                             bank13       000000
__Lbank14                                             bank14       000000
__Lbank15                                             bank15       000000
__Lbank2                                              bank2        000000
__Lbank3                                              bank3        000000
__Lbank4                                              bank4        000000
__Lbank5                                              bank5        000000
__Lbank6                                              bank6        000000
__Lbank7                                              bank7        000000
__Lbank8                                              bank8        000000
__Lbank9                                              bank9        000000
__Lbigbss                                             bigbss       000000
__Lbigdata                                            bigdata      000000
__Lbigram                                             bigram       000000
__Lbigsfr                                             bigsfr       000000
__Lbss                                                bss          000000
__LbssBANK0                                           bssBANK0     000000
__LbssBANK1                                           bssBANK1     000000
__LbssBANK2                                           bssBANK2     000000
__LbssBANK3                                           bssBANK3     000000
__LbssBIGRAM                                          bssBIGRAM    000000
__Lcinit                                              cinit        000000
__Lclrtext                                            clrtext      000000
__Lcomram                                             comram       000000
__Lconfig                                             config       000000
__Lconst                                              const        000000
__LcstackBANK0                                        cstackBANK0  000000
__LcstackBANK1                                        cstackBANK1  000000
__LcstackBANK2                                        cstackBANK2  000000
__LcstackBANK3                                        cstackBANK3  000000
__LcstackCOMRAM                                       cstackCOMRAM 000000
__Ldata                                               data         000000
__LdataBANK0                                          dataBANK0    000000
__LdataBANK1                                          dataBANK1    000000
__LdataBANK2                                          dataBANK2    000000
__Leeprom_data                                        eeprom_data  000000
__Lfarbss                                             farbss       000000
__Lfardata                                            fardata      000000
__Lheap                                               heap         000000
__Libigdata                                           ibigdata     000000
__Lidata                                              idata        000000
__LidataBANK0                                         idataBANK0   000000
__LidataBANK1                                         idataBANK1   000000
__LidataBANK2                                         idataBANK2   000000
__Lidloc                                              idloc        000000
__Lifardata                                           ifardata     000000
__Linit                                               init         00000E
__Lintcode                                            intcode      000008
__Lintcode_body                                       intcode_body 000000
__Lintcodelo                                          intcodelo    00000E
__Lintentry                                           intentry     000000
__Lintret                                             intret       000000
__Lintsave_regs                                       intsave_regs 000000
__Lirdata                                             irdata       000000
__Lmediumconst                                        mediumconst  00FB5A
__LnvFARRAM                                           nvFARRAM     000000
__Lnvbit                                              nvbit        000000
__Lnvrram                                             nvrram       000000
__Lparam                                              rparam       000000
__Lpowerup                                            powerup      00000E
__Lram                                                ram          000000
__Lramtop                                             ramtop       001000
__Lrbit                                               rbit         000000
__Lrbss                                               rbss         000000
__Lrdata                                              rdata        000000
__Lreset_vec                                          reset_vec    000000
__Lrparam                                             rparam       000000
__Lsfr                                                sfr          000000
__Lsivt_hi                                            sivt_hi      000000
__Lsivt_lo                                            sivt_lo      000000
__Lsmallconst                                         smallconst   000000
__Lspace_0                                            (abs)        000000
__Lspace_1                                            (abs)        000000
__Lspace_2                                            (abs)        000000
__Lspace_4                                            (abs)        000000
__Lstack                                              stack        000000
__Lstruct                                             struct       000000
__Ltemp                                               temp         00007E
__Ltext                                               text         000000
__Ltext0                                              text0        000000
__Ltext1                                              text1        000000
__Ltext10                                             text10       000000
__Ltext100                                            text100      000000
__Ltext101                                            text101      000000
__Ltext102                                            text102      000000
__Ltext103                                            text103      000000
__Ltext104                                            text104      000000
__Ltext105                                            text105      000000
__Ltext106                                            text106      000000
__Ltext107                                            text107      000000
__Ltext108                                            text108      000000
__Ltext109                                            text109      000000
__Ltext11                                             text11       000000
__Ltext110                                            text110      000000
__Ltext111                                            text111      000000
__Ltext112                                            text112      000000
__Ltext113                                            text113      000000
__Ltext114                                            text114      000000
__Ltext115                                            text115      000000
__Ltext116                                            text116      000000
__Ltext117                                            text117      000000
__Ltext118                                            text118      000000
__Ltext119                                            text119      000000
__Ltext12                                             text12       000000
__Ltext120                                            text120      000000
__Ltext121                                            text121      000000
__Ltext122                                            text122      000000
__Ltext123                                            text123      000000
__Ltext124                                            text124      000000
__Ltext125                                            text125      000000
__Ltext126                                            text126      000000
__Ltext127                                            text127      000000
__Ltext128                                            text128      000000
__Ltext129                                            text129      000000
__Ltext13                                             text13       000000
__Ltext130                                            text130      000000
__Ltext131                                            text131      000000
__Ltext132                                            text132      000000
__Ltext133                                            text133      000000
__Ltext134                                            text134      000000
__Ltext135                                            text135      000000
__Ltext136                                            text136      000000
__Ltext137                                            text137      000000
__Ltext138                                            text138      000000
__Ltext139                                            text139      000000
__Ltext14                                             text14       000000
__Ltext140                                            text140      000000
__Ltext141                                            text141      000000
__Ltext142                                            text142      000000
__Ltext143                                            text143      000000
__Ltext144                                            text144      000000
__Ltext145                                            text145      000000
__Ltext146                                            text146      000000
__Ltext147                                            text147      000000
__Ltext148                                            text148      000000
__Ltext149                                            text149      000000
__Ltext15                                             text15       000000
__Ltext150                                            text150      000000
__Ltext151                                            text151      000000
__Ltext152                                            text152      000000
__Ltext153                                            text153      000000
__Ltext154                                            text154      000000
__Ltext155                                            text155      000000
__Ltext156                                            text156      000000
__Ltext157                                            text157      000000
__Ltext158                                            text158      000000
__Ltext159                                            text159      000000
__Ltext16                                             text16       000000
__Ltext160                                            text160      000000
__Ltext161                                            text161      000000
__Ltext162                                            text162      000000
__Ltext163                                            text163      000000
__Ltext164                                            text164      000000
__Ltext165                                            text165      000000
__Ltext166                                            text166      000000
__Ltext167                                            text167      000000
__Ltext168                                            text168      000000
__Ltext169                                            text169      000000
__Ltext17                                             text17       000000
__Ltext170                                            text170      000000
__Ltext171                                            text171      000000
__Ltext172                                            text172      000000
__Ltext173                                            text173      000000
__Ltext174                                            text174      000000
__Ltext175                                            text175      000000
__Ltext176                                            text176      000000
__Ltext177                                            text177      000000
__Ltext178                                            text178      000000
__Ltext179                                            text179      000000
__Ltext18                                             text18       000000
__Ltext180                                            text180      000000
__Ltext181                                            text181      000000
__Ltext182                                            text182      000000
__Ltext183                                            text183      000000
__Ltext184                                            text184      000000
__Ltext185                                            text185      000000
__Ltext186                                            text186      000000
__Ltext187                                            text187      000000
__Ltext188                                            text188      000000
__Ltext189                                            text189      000000
__Ltext19                                             text19       000000
__Ltext190                                            text190      000000
__Ltext191                                            text191      000000
__Ltext192                                            text192      000000
__Ltext193                                            text193      000000
__Ltext194                                            text194      000000
__Ltext195                                            text195      000000
__Ltext196                                            text196      000000
__Ltext2                                              text2        000000
__Ltext20                                             text20       000000
__Ltext21                                             text21       000000
__Ltext22                                             text22       000000
__Ltext23                                             text23       000000
__Ltext24                                             text24       000000
__Ltext25                                             text25       000000
__Ltext26                                             text26       000000
__Ltext27                                             text27       000000
__Ltext28                                             text28       000000
__Ltext29                                             text29       000000
__Ltext3                                              text3        000000
__Ltext30                                             text30       000000
__Ltext31                                             text31       000000
__Ltext32                                             text32       000000
__Ltext33                                             text33       000000
__Ltext34                                             text34       000000
__Ltext35                                             text35       000000
__Ltext36                                             text36       000000
__Ltext37                                             text37       000000
__Ltext38                                             text38       000000
__Ltext39                                             text39       000000
__Ltext4                                              text4        000000
__Ltext40                                             text40       000000
__Ltext41                                             text41       000000
__Ltext42                                             text42       000000
__Ltext43                                             text43       000000
__Ltext44                                             text44       000000
__Ltext45                                             text45       000000
__Ltext46                                             text46       000000
__Ltext47                                             text47       000000
__Ltext48                                             text48       000000
__Ltext49                                             text49       000000
__Ltext5                                              text5        000000
__Ltext50                                             text50       000000
__Ltext51                                             text51       000000
__Ltext52                                             text52       000000
__Ltext53                                             text53       000000
__Ltext54                                             text54       000000
__Ltext55                                             text55       000000
__Ltext56                                             text56       000000
__Ltext57                                             text57       000000
__Ltext58                                             text58       000000
__Ltext59                                             text59       000000
__Ltext6                                              text6        000000
__Ltext60                                             text60       000000
__Ltext61                                             text61       000000
__Ltext62                                             text62       000000
__Ltext63                                             text63       000000
__Ltext64                                             text64       000000
__Ltext65                                             text65       000000
__Ltext66                                             text66       000000
__Ltext67                                             text67       000000
__Ltext69                                             text69       000000
__Ltext7                                              text7        000000
__Ltext70                                             text70       000000
__Ltext71                                             text71       000000
__Ltext72                                             text72       000000
__Ltext73                                             text73       000000
__Ltext74                                             text74       000000
__Ltext75                                             text75       000000
__Ltext76                                             text76       000000
__Ltext77                                             text77       000000
__Ltext78                                             text78       000000
__Ltext79                                             text79       000000
__Ltext8                                              text8        000000
__Ltext80                                             text80       000000
__Ltext81                                             text81       000000
__Ltext82                                             text82       000000
__Ltext83                                             text83       000000
__Ltext84                                             text84       000000
__Ltext85                                             text85       000000
__Ltext86                                             text86       000000
__Ltext87                                             text87       000000
__Ltext88                                             text88       000000
__Ltext89                                             text89       000000
__Ltext9                                              text9        000000
__Ltext90                                             text90       000000
__Ltext91                                             text91       000000
__Ltext92                                             text92       000000
__Ltext93                                             text93       000000
__Ltext94                                             text94       000000
__Ltext95                                             text95       000000
__Ltext96                                             text96       000000
__Ltext97                                             text97       000000
__Ltext98                                             text98       000000
__Ltext99                                             text99       000000
__S0                                                  (abs)        010000
__S1                                                  (abs)        0007BD
__S4                                                  (abs)        000000
__S5                                                  (abs)        000000
___awdiv                                              text38       0098CA
___awdiv@counter                                      cstackBANK1  000144
___awdiv@dividend                                     cstackBANK1  000140
___awdiv@divisor                                      cstackBANK1  000142
___awdiv@quotient                                     cstackBANK1  000146
___awdiv@sign                                         cstackBANK1  000145
___awmod                                              text37       009EB0
___awmod@counter                                      cstackBANK1  000144
___awmod@dividend                                     cstackBANK1  000140
___awmod@divisor                                      cstackBANK1  000142
___awmod@sign                                         cstackBANK1  000145
___fladd                                              text25       004118
___fladd@a                                            cstackBANK1  00016B
___fladd@aexp                                         cstackBANK1  000174
___fladd@b                                            cstackBANK1  000167
___fladd@bexp                                         cstackBANK1  000175
___fladd@grs                                          cstackBANK1  000176
___fladd@signs                                        cstackBANK1  000173
___fldiv                                              text44       005B82
___fldiv@a                                            cstackBANK1  000152
___fldiv@aexp                                         cstackBANK1  000166
___fldiv@b                                            cstackBANK1  00014E
___fldiv@bexp                                         cstackBANK1  000165
___fldiv@grs                                          cstackBANK1  000161
___fldiv@new_exp                                      cstackBANK1  00015F
___fldiv@rem                                          cstackBANK1  00015A
___fldiv@sign                                         cstackBANK1  00015E
___fleq                                               text28       00A172
___fleq@ff1                                           cstackBANK1  000140
___fleq@ff2                                           cstackBANK1  000144
___flge                                               text27       008BCA
___flge@ff1                                           cstackBANK1  000167
___flge@ff2                                           cstackBANK1  00016B
___flmul                                              text43       00532C
___flmul@a                                            cstackBANK1  000152
___flmul@aexp                                         cstackBANK1  00015B
___flmul@b                                            cstackBANK1  00014E
___flmul@bexp                                         cstackBANK1  000160
___flmul@grs                                          cstackBANK1  00015C
___flmul@prod                                         cstackBANK1  000161
___flmul@sign                                         cstackBANK1  00015A
___flmul@temp                                         cstackBANK1  000165
___flneg                                              text26       00B84C
___flneg@f1                                           cstackBANK1  000140
___flsub                                              text24       00B62A
___flsub@a                                            cstackBANK1  00017B
___flsub@b                                            cstackBANK1  000177
___fltol                                              text42       008AC2
___fltol@exp1                                         cstackBANK1  000170
___fltol@f1                                           cstackBANK1  000167
___fltol@sign1                                        cstackBANK1  00016F
___fpclassifyf                                        text23       008EDA
___fpclassifyf@F465                                   bssBANK2     000234
___fpclassifyf@e                                      cstackBANK1  000148
___fpclassifyf@u                                      cstackBANK1  00014A
___fpclassifyf@x                                      cstackBANK1  000140
___heap_hi                                            (abs)        000000
___heap_lo                                            (abs)        000000
___inthi_sp                                           stack        000000
___inthi_stack_hi                                     stack        000000
___inthi_stack_lo                                     stack        000000
___intlo_sp                                           stack        000000
___intlo_stack_hi                                     stack        000000
___intlo_stack_lo                                     stack        000000
___lbmod                                              text141      00BA46
___lbmod@counter                                      cstackCOMRAM 000003
___lbmod@dividend                                     cstackCOMRAM 000002
___lbmod@divisor                                      cstackCOMRAM 000001
___lbmod@rem                                          cstackCOMRAM 000004
___lmul                                               text82       00AD2E
___lmul@multiplicand                                  cstackCOMRAM 000005
___lmul@multiplier                                    cstackCOMRAM 000001
___lmul@product                                       cstackCOMRAM 000009
___param_bank                                         (abs)        000000
___rparam_used                                        (abs)        000001
___sp                                                 stack        000000
___stack_hi                                           stack        000000
___stack_lo                                           stack        000000
___wmul                                               text17       00BC82
___wmul@multiplicand                                  cstackBANK1  000142
___wmul@multiplier                                    cstackBANK1  000140
___wmul@product                                       cstackBANK1  000144
___xxtofl                                             text41       00752E
___xxtofl@arg                                         cstackBANK1  00014A
___xxtofl@exp                                         cstackBANK1  000149
___xxtofl@sign                                        cstackBANK1  000148
___xxtofl@val                                         cstackBANK1  000140
__accesstop                                           (abs)        000080
__activetblptr                                        (abs)        000003
__end_of_ACMD22                                       mediumconst  00FD3F
__end_of_ACMD23                                       mediumconst  00FD3E
__end_of_ACMD41                                       mediumconst  00FD3D
__end_of_CMD0                                         mediumconst  00FD52
__end_of_CMD0CRC                                      mediumconst  00FD51
__end_of_CMD1                                         mediumconst  00FD50
__end_of_CMD10                                        mediumconst  00FD4C
__end_of_CMD12                                        mediumconst  00FD4B
__end_of_CMD13                                        mediumconst  00FD4A
__end_of_CMD16                                        mediumconst  00FD49
__end_of_CMD17                                        mediumconst  00FD48
__end_of_CMD18                                        mediumconst  00FD47
__end_of_CMD24                                        mediumconst  00FD46
__end_of_CMD25                                        mediumconst  00FD45
__end_of_CMD32                                        mediumconst  00FD44
__end_of_CMD33                                        mediumconst  00FD43
__end_of_CMD38                                        mediumconst  00FD42
__end_of_CMD55                                        mediumconst  00FD41
__end_of_CMD58                                        mediumconst  00FD40
__end_of_CMD8                                         mediumconst  00FD4F
__end_of_CMD8CRC                                      mediumconst  00FD4E
__end_of_CMD9                                         mediumconst  00FD4D
__end_of_DisplayDateOnLCD                             text178      007B9A
__end_of_DisplayTimeToLCD                             text176      007A20
__end_of_Font                                         mediumconst  00FC5A
__end_of_Font2                                        mediumconst  00FD36
__end_of_Get_DS1307_RTC_Date                          text111      00AD2E
__end_of_Get_DS1307_RTC_Time                          text110      009DFA
__end_of_I2C_Delay                                    text67       00C05A
__end_of_I2C_ReadFromAddress                          text53       00BFC2
__end_of_I2C_ReadRegister                             text113      00BD1E
__end_of_I2C_ReadResult                               text52       00A914
__end_of_I2C_ReadResult_withAck                       text92       00A98E
__end_of_I2C_SendOne                                  text60       00BF5C
__end_of_I2C_SendZero                                 text59       00BF46
__end_of_I2C_Start                                    text62       00BE50
__end_of_I2C_Stop                                     text61       00BDAE
__end_of_I2C_WriteByte                                text58       00AFDA
__end_of_I2C_WriteToAddress                           text57       00BF18
__end_of_InterruptManager                             intcode_body 0092C8
__end_of_LCD_CMD                                      text55       00BE12
__end_of_LCD_Clear                                    text177      00BFE2
__end_of_LCD_Init                                     text54       008AC2
__end_of_LCD_Set_Cursor                               text182      00B134
__end_of_LCD_Write_4Bit                               text56       00B4B0
__end_of_LCD_Write_Char                               text181      00BEE2
__end_of_OneWireHigh                                  text109      00C0D0
__end_of_OneWireRead                                  text108      00BFB2
__end_of_OneWireReadBit                               text106      00BCF8
__end_of_OneWireReadByte                              text105      00B594
__end_of_OneWireRelease                               text107      00C0CA
__end_of_OneWireReset                                 text104      00B2D2
__end_of_OneWireTemp                                  text101      00A014
__end_of_OneWireWriteBit                              text103      00B78A
__end_of_OneWireWriteByte                             text102      00B8C0
__end_of_R1_IDLE_STATE                                mediumconst  00FD3B
__end_of_R1_ILLEGAL_COMMAND                           mediumconst  00FD3A
__end_of_R1_READY_STATE                               mediumconst  00FD3C
__end_of_Read_Bytes_From_DS1307_RTC                   text112      00B324
__end_of_SCL_High                                     text66       00C09A
__end_of_SCL_Low                                      text65       00C01A
__end_of_SDA_High                                     text64       00C092
__end_of_SDA_Low                                      text63       00C00C
__end_of_SD_ACMD                                      text45       00BA46
__end_of_SD_Command                                   text46       00A5F8
__end_of_SD_EraseBlocks                               text120      00AA08
__end_of_SD_MBR_Receive                               text89       00A55A
__end_of_SD_MBR_Start                                 text88       00AAFA
__end_of_SD_MBR_Stop                                  text87       00BE6E
__end_of_SD_SendDummyBytes                            text119      00BD68
__end_of_SD_SingleBlockWrite                          text118      0094AA
__end_of_SSD1306_ClearDisplay                         text144      00AF24
__end_of_SSD1306_GotoXY                               text143      00BBA4
__end_of_SSD1306_Init                                 text142      0093BE
__end_of_SSD1306_PutStretchC                          text140      006964
__end_of_START_BLOCK                                  mediumconst  00FD39
__end_of_START_BLOCK_TOKEN                            mediumconst  00FD38
__end_of_STOP_TRAN                                    mediumconst  00FD37
__end_of_TMR0_ISR                                     text196      00C044
__end_of_TMR1_ISR                                     text98       00B9A2
__end_of_Timer1_DefaultInterruptHandler               text99       008268
__end_of_Timer1_Init                                  text7        00A4BA
__end_of_Timer1_Mode_Selection                        text8        00A898
__end_of_USART_ASYNCRONOUS_RX_Init                    text5        009588
__end_of_USART_ASYNCRONOUS_TX_Init                    text4        009EB0
__end_of_USART_Asynchronous_Initialize                text2        00B22E
__end_of_USART_Asynchronous_ReadByte_NonBlocking      text97       00BCD2
__end_of_USART_Asynchronous_Restart_RX                text95       00C0C4
__end_of_USART_Asynchronous_WriteByte_Blocking        text35       00BEC6
__end_of_USART_Baud_Rate_Calculation                  text3        004118
__end_of_USART_FramingDefaultErrorHandler             text96       00C064
__end_of_USART_OverrunDefaultErrorHandler             text94       00C0BE
__end_of_USART_RX_ISR                                 text71       00A794
__end_of_USART_RxDefaultInterruptHandler              text72       008636
__end_of_USART_TX_ISR                                 text69       00BB44
__end_of_USART_TxDefaultInterruptHandler              text70       00BFD2
__end_of___awdiv                                      text38       009990
__end_of___awmod                                      text37       009F62
__end_of___fladd                                      text25       0045DA
__end_of___fldiv                                      text44       005F1E
__end_of___fleq                                       text28       00A21E
__end_of___flge                                       text27       008CD0
__end_of___flmul                                      text43       005758
__end_of___flneg                                      text26       00B886
__end_of___flsub                                      text24       00B672
__end_of___fltol                                      text42       008BCA
__end_of___fpclassifyf                                text23       008FDA
__end_of___lbmod                                      text141      00BA7C
__end_of___lmul                                       text82       00AD98
__end_of___wmul                                       text17       00BCAA
__end_of___xxtofl                                     text41       0076E6
__end_of__initialization                              cinit        00A40C
__end_of_abs                                          text36       00BA10
__end_of_atoi                                         text93       008892
__end_of_buzzer                                       text175      00BE8C
__end_of_dtoa                                         text29       00736E
__end_of_efgtoa                                       text18       001B84
__end_of_execute_rx_command                           text76       008772
__end_of_extract_all_alarms                           text90       0089B0
__end_of_extract_data_for_days                        text83       003C10
__end_of_floorf                                       text22       006DCC
__end_of_fputc                                        text33       009BCE
__end_of_fputs                                        text32       00B6BA
__end_of_heater_set_mode                              text135      00B700
__end_of_initSD                                       text39       002E82
__end_of_isdigit                                      text81       00BC5A
__end_of_isxdigit                                     text80       00B088
__end_of_labs                                         text21       00B032
__end_of_led_set_mode                                 text134      00AC54
__end_of_log_system                                   text146      0084F8
__end_of_main                                         text0        00BBD2
__end_of_memcpy                                       text20       00B280
__end_of_memset                                       text75       00B96A
__end_of_nanf                                         text79       00BDD0
__end_of_oled_puts                                    text139      00ADFE
__end_of_pad                                          text30       009B12
__end_of_print_temperature                            text136      007D0A
__end_of_printf                                       text12       00BC82
__end_of_putch                                        text34       00BFF0
__end_of_read_eep_address_in_eeprom                   text50       00A70E
__end_of_read_init_sd_card                            text11       006640
__end_of_read_one_byte_in_eeprom                      text51       00B810
__end_of_read_one_page_in_eeprom                      text91       00AB70
__end_of_read_prec_or_width                           text16       009734
__end_of_read_sd_address_in_eeprom                    text10       00A370
__end_of_reset_eep_address_in_eeprom                  text132      00AA82
__end_of_reset_sd_address_in_eeprom                   text126      00B5E0
__end_of_save_eep_address_in_eeprom                   text131      00ACC2
__end_of_save_in_eeprom                               text129      0071AC
__end_of_save_sd_address_in_eeprom                    text125      00A818
__end_of_set_pwm_duty                                 text128      009666
__end_of_single_block_write                           text117      00A172
__end_of_snprintf                                     text138      0091D2
__end_of_spiInit                                      text40       00B3C4
__end_of_spiReceive                                   text48       00C08A
__end_of_spiSend                                      text47       00BFFE
__end_of_spiTransfer                                  text49       00B932
__end_of_ssd1306_command                              text145      00BE32
__end_of_start_pwm                                    text9        00C0D8
__end_of_strchr                                       text74       00B4FC
__end_of_strcpy                                       text19       00B84C
__end_of_strlen                                       text31       00B188
__end_of_strncmp                                      text73       009800
__end_of_strtof                                       text77       001076
__end_of_temp_management                              text127      006BB6
__end_of_timer1_timer_init                            text6        00BB14
__end_of_toupper                                      text78       00BC00
__end_of_update_SD_tab                                text116      007E6E
__end_of_update_system_data                           text100      007FCC
__end_of_usart_module_init                            text1        00B374
__end_of_vfpfcnvrt                                    text14       004EF4
__end_of_vfprintf                                     text13       00AE62
__end_of_write_one_byte_in_eeprom                     text133      00BC2E
__end_of_write_one_page_in_eeprom                     text130      00AF80
__end_of_xtoa                                         text15       00811A
__end_ofi2_I2C_Delay                                  text195      00C082
__end_ofi2_I2C_ReadFromAddress                        text115      00C050
__end_ofi2_I2C_ReadResult                             text114      00ABE2
__end_ofi2_I2C_SendOne                                text188      00BF9E
__end_ofi2_I2C_SendZero                               text187      00BF88
__end_ofi2_I2C_Start                                  text190      00BEAA
__end_ofi2_I2C_Stop                                   text189      00BDF2
__end_ofi2_I2C_WriteByte                              text186      00B1DC
__end_ofi2_I2C_WriteToAddress                         text185      00BF72
__end_ofi2_LCD_CMD                                    text183      00BEFE
__end_ofi2_LCD_Write_4Bit                             text184      00B62A
__end_ofi2_SCL_High                                   text194      00C0B2
__end_ofi2_SCL_Low                                    text193      00C036
__end_ofi2_SDA_High                                   text192      00C0AA
__end_ofi2_SDA_Low                                    text191      00C028
__end_ofi2_SD_ACMD                                    text86       00BB74
__end_ofi2_SD_Command                                 text121      00A684
__end_ofi2_USART_Asynchronous_WriteByte_Blocking      text173      00BF30
__end_ofi2___awdiv                                    text180      009A54
__end_ofi2___awmod                                    text179      00A0C4
__end_ofi2___fladd                                    text161      004A9A
__end_ofi2___fldiv                                    text166      0062B8
__end_ofi2___fleq                                     text165      00A2C8
__end_ofi2___flge                                     text164      008EDA
__end_ofi2___flmul                                    text163      005B82
__end_ofi2___flneg                                    text162      00B9DA
__end_ofi2___flsub                                    text160      00B746
__end_ofi2___fltol                                    text159      008DD6
__end_ofi2___fpclassifyf                              text158      0090D8
__end_ofi2___wmul                                     text152      00BD44
__end_ofi2___xxtofl                                   text137      00789A
__end_ofi2_abs                                        text174      00BAE4
__end_ofi2_dtoa                                       text167      00752E
__end_ofi2_efgtoa                                     text153      002600
__end_ofi2_floorf                                     text157      006FDE
__end_ofi2_fputc                                      text171      009D42
__end_ofi2_fputs                                      text170      00B7CE
__end_ofi2_initSD                                     text84       003698
__end_ofi2_labs                                       text156      00B0DE
__end_ofi2_memcpy                                     text155      00B414
__end_ofi2_pad                                        text168      009C88
__end_ofi2_printf                                     text147      00BD8C
__end_ofi2_putch                                      text172      00C078
__end_ofi2_read_prec_or_width                         text151      0098CA
__end_ofi2_spiInit                                    text85       00B548
__end_ofi2_spiReceive                                 text123      00C0A2
__end_ofi2_spiSend                                    text122      00C06E
__end_ofi2_spiTransfer                                text124      00BAB0
__end_ofi2_strcpy                                     text154      00B8FA
__end_ofi2_strlen                                     text169      00B464
__end_ofi2_vfpfcnvrt                                  text149      00532C
__end_ofi2_vfprintf                                   text148      00AEC4
__end_ofi2_xtoa                                       text150      0083B6
__i2caddr                                             bssBANK1     0001B8
__initialization                                      cinit        00A370
__mediumconst                                         mediumconst  00FB5A
__pbssBANK0                                           bssBANK0     0000F9
__pbssBANK1                                           bssBANK1     000183
__pbssBANK2                                           bssBANK2     000200
__pbssBANK3                                           bssBANK3     000300
__pbssBIGRAM                                          bssBIGRAM    0003BD
__pcinit                                              cinit        00A370
__pcstackBANK0                                        cstackBANK0  000080
__pcstackBANK1                                        cstackBANK1  000100
__pcstackBANK2                                        cstackBANK2  0002CF
__pcstackBANK3                                        cstackBANK3  000384
__pcstackCOMRAM                                       cstackCOMRAM 000001
__pdataBANK0                                          dataBANK0    0000FE
__pdataBANK1                                          dataBANK1    0001BC
__pdataBANK2                                          dataBANK2    0002FA
__pidataBANK0                                         idataBANK0   00C0D8
__pidataBANK1                                         idataBANK1   00C0D0
__pidataBANK2                                         idataBANK2   00C0B2
__pintcode                                            intcode      000008
__pintcode_body                                       intcode_body 0091D2
__pmediumconst                                        mediumconst  00FB5A
__ptext0                                              text0        00BBA4
__ptext1                                              text1        00B324
__ptext10                                             text10       00A2C8
__ptext100                                            text100      007E6E
__ptext101                                            text101      009F62
__ptext102                                            text102      00B886
__ptext103                                            text103      00B746
__ptext104                                            text104      00B280
__ptext105                                            text105      00B548
__ptext106                                            text106      00BCD2
__ptext107                                            text107      00C0C4
__ptext108                                            text108      00BF9E
__ptext109                                            text109      00C0CA
__ptext11                                             text11       0062B8
__ptext110                                            text110      009D42
__ptext111                                            text111      00ACC2
__ptext112                                            text112      00B2D2
__ptext113                                            text113      00BCF8
__ptext114                                            text114      00AB70
__ptext115                                            text115      00C044
__ptext116                                            text116      007D0A
__ptext117                                            text117      00A0C4
__ptext118                                            text118      0093BE
__ptext119                                            text119      00BD44
__ptext12                                             text12       00BC5A
__ptext120                                            text120      00A98E
__ptext121                                            text121      00A5F8
__ptext122                                            text122      00C064
__ptext123                                            text123      00C09A
__ptext124                                            text124      00BA7C
__ptext125                                            text125      00A794
__ptext126                                            text126      00B594
__ptext127                                            text127      006964
__ptext128                                            text128      009588
__ptext129                                            text129      006FDE
__ptext13                                             text13       00ADFE
__ptext130                                            text130      00AF24
__ptext131                                            text131      00AC54
__ptext132                                            text132      00AA08
__ptext133                                            text133      00BC00
__ptext134                                            text134      00ABE2
__ptext135                                            text135      00B6BA
__ptext136                                            text136      007B9A
__ptext137                                            text137      0076E6
__ptext138                                            text138      0090D8
__ptext139                                            text139      00AD98
__ptext14                                             text14       004A9A
__ptext140                                            text140      006640
__ptext141                                            text141      00BA46
__ptext142                                            text142      0092C8
__ptext143                                            text143      00BB74
__ptext144                                            text144      00AEC4
__ptext145                                            text145      00BE12
__ptext146                                            text146      0083B6
__ptext147                                            text147      00BD68
__ptext148                                            text148      00AE62
__ptext149                                            text149      004EF4
__ptext15                                             text15       007FCC
__ptext150                                            text150      008268
__ptext151                                            text151      009800
__ptext152                                            text152      00BD1E
__ptext153                                            text153      001B84
__ptext154                                            text154      00B8C0
__ptext155                                            text155      00B3C4
__ptext156                                            text156      00B088
__ptext157                                            text157      006DCC
__ptext158                                            text158      008FDA
__ptext159                                            text159      008CD0
__ptext16                                             text16       009666
__ptext160                                            text160      00B700
__ptext161                                            text161      0045DA
__ptext162                                            text162      00B9A2
__ptext163                                            text163      005758
__ptext164                                            text164      008DD6
__ptext165                                            text165      00A21E
__ptext166                                            text166      005F1E
__ptext167                                            text167      00736E
__ptext168                                            text168      009BCE
__ptext169                                            text169      00B414
__ptext17                                             text17       00BC82
__ptext170                                            text170      00B78A
__ptext171                                            text171      009C88
__ptext172                                            text172      00C06E
__ptext173                                            text173      00BF18
__ptext174                                            text174      00BAB0
__ptext175                                            text175      00BE6E
__ptext176                                            text176      00789A
__ptext177                                            text177      00BFD2
__ptext178                                            text178      007A20
__ptext179                                            text179      00A014
__ptext18                                             text18       001076
__ptext180                                            text180      009990
__ptext181                                            text181      00BEC6
__ptext182                                            text182      00B0DE
__ptext183                                            text183      00BEE2
__ptext184                                            text184      00B5E0
__ptext185                                            text185      00BF5C
__ptext186                                            text186      00B188
__ptext187                                            text187      00BF72
__ptext188                                            text188      00BF88
__ptext189                                            text189      00BDD0
__ptext19                                             text19       00B810
__ptext190                                            text190      00BE8C
__ptext191                                            text191      00C01A
__ptext192                                            text192      00C0A2
__ptext193                                            text193      00C028
__ptext194                                            text194      00C0AA
__ptext195                                            text195      00C078
__ptext196                                            text196      00C036
__ptext2                                              text2        00B1DC
__ptext20                                             text20       00B22E
__ptext21                                             text21       00AFDA
__ptext22                                             text22       006BB6
__ptext23                                             text23       008EDA
__ptext24                                             text24       00B62A
__ptext25                                             text25       004118
__ptext26                                             text26       00B84C
__ptext27                                             text27       008BCA
__ptext28                                             text28       00A172
__ptext29                                             text29       0071AC
__ptext3                                              text3        003C10
__ptext30                                             text30       009A54
__ptext31                                             text31       00B134
__ptext32                                             text32       00B672
__ptext33                                             text33       009B12
__ptext34                                             text34       00BFE2
__ptext35                                             text35       00BEAA
__ptext36                                             text36       00B9DA
__ptext37                                             text37       009EB0
__ptext38                                             text38       0098CA
__ptext39                                             text39       002600
__ptext4                                              text4        009DFA
__ptext40                                             text40       00B374
__ptext41                                             text41       00752E
__ptext42                                             text42       008AC2
__ptext43                                             text43       00532C
__ptext44                                             text44       005B82
__ptext45                                             text45       00BA10
__ptext46                                             text46       00A55A
__ptext47                                             text47       00BFF0
__ptext48                                             text48       00C082
__ptext49                                             text49       00B8FA
__ptext5                                              text5        0094AA
__ptext50                                             text50       00A684
__ptext51                                             text51       00B7CE
__ptext52                                             text52       00A898
__ptext53                                             text53       00BFB2
__ptext54                                             text54       0089B0
__ptext55                                             text55       00BDF2
__ptext56                                             text56       00B464
__ptext57                                             text57       00BEFE
__ptext58                                             text58       00AF80
__ptext59                                             text59       00BF30
__ptext6                                              text6        00BAE4
__ptext60                                             text60       00BF46
__ptext61                                             text61       00BD8C
__ptext62                                             text62       00BE32
__ptext63                                             text63       00BFFE
__ptext64                                             text64       00C08A
__ptext65                                             text65       00C00C
__ptext66                                             text66       00C092
__ptext67                                             text67       00C050
__ptext69                                             text69       00BB14
__ptext7                                              text7        00A416
__ptext70                                             text70       00BFC2
__ptext71                                             text71       00A70E
__ptext72                                             text72       0084F8
__ptext73                                             text73       009734
__ptext74                                             text74       00B4B0
__ptext75                                             text75       00B932
__ptext76                                             text76       008636
__ptext77                                             text77       000012
__ptext78                                             text78       00BBD2
__ptext79                                             text79       00BDAE
__ptext8                                              text8        00A818
__ptext80                                             text80       00B032
__ptext81                                             text81       00BC2E
__ptext82                                             text82       00AD2E
__ptext83                                             text83       003698
__ptext84                                             text84       002E82
__ptext85                                             text85       00B4FC
__ptext86                                             text86       00BB44
__ptext87                                             text87       00BE50
__ptext88                                             text88       00AA82
__ptext89                                             text89       00A4BA
__ptext9                                              text9        00C0D4
__ptext90                                             text90       008892
__ptext91                                             text91       00AAFA
__ptext92                                             text92       00A914
__ptext93                                             text93       008772
__ptext94                                             text94       00C0B8
__ptext95                                             text95       00C0BE
__ptext96                                             text96       00C05A
__ptext97                                             text97       00BCAA
__ptext98                                             text98       00B96A
__ptext99                                             text99       00811A
__ramtop                                              ramtop       001000
__smallconst                                          smallconst   000000
__vccstate                                            bssBANK1     0001B7
_abs                                                  text36       00B9DA
_activate_buzzer                                      bssBANK0     0000FC
_atoi                                                 text93       008772
_buzzer                                               text175      00BE6E
_commands                                             dataBANK2    0002FA
_counter_alarm                                        bssBANK0     0000FA
_dbuf                                                 bssBANK2     00026A
_dtoa                                                 text29       0071AC
_dtoa$3628                                            cstackBANK1  00015F
_efgtoa                                               text18       001076
_efgtoa$3659                                          cstackBANK3  00038A
_errno                                                bssBANK2     00024E
_execute_rx_command                                   text76       008636
_extract_all_alarms                                   text90       008892
_extract_data_for_days                                text83       003698
_flags                                                bssBANK1     0001B6
_floorf                                               text22       006BB6
_fputc                                                text33       009B12
_fputs                                                text32       00B672
_heater_set_mode                                      text135      00B6BA
_i2c_add                                              bssBANK1     0001B9
_initSD                                               text39       002600
_isdigit                                              text81       00BC2E
_isxdigit                                             text80       00B032
_isxdigit$3876                                        cstackCOMRAM 000007
_labs                                                 text21       00AFDA
_led_set_mode                                         text134      00ABE2
_log_system                                           text146      0083B6
_main                                                 text0        00BBA4
_memcpy                                               text20       00B22E
_memset                                               text75       00B932
_nanf                                                 text79       00BDAE
_nout                                                 bssBANK2     00024C
_oled_puts                                            text139      00AD98
_pRTCArray                                            bssBANK2     0002CB
_pad                                                  text30       009A54
_prec                                                 bssBANK1     0001B4
_previous_address_eeprom                              dataBANK0    0000FE
_print_temperature                                    text136      007B9A
_printf                                               text12       00BC5A
_putch                                                text34       00BFE2
_read_eep_address_in_eeprom                           text50       00A684
_read_init_sd_card                                    text11       0062B8
_read_one_byte_in_eeprom                              text51       00B7CE
_read_one_page_in_eeprom                              text91       00AAFA
_read_prec_or_width                                   text16       009666
_read_sd_address_in_eeprom                            text10       00A2C8
_receive_usart_data                                   bssBANK0     0000FD
_reset_eep_address_in_eeprom                          text132      00AA08
_reset_sd_address_in_eeprom                           text126      00B594
_rx_buffer                                            bssBANK3     000320
_rx_buffer_index                                      bssBANK2     000268
_save_eep_address_in_eeprom                           text131      00AC54
_save_in_eeprom                                       text129      006FDE
_save_sd_address_in_eeprom                            text125      00A794
_sector_address                                       bssBANK2     000238
_set_pwm_duty                                         text128      009588
_single_block_write                                   text117      00A0C4
_snprintf                                             text138      0090D8
_snprintf$3556                                        cstackBANK0  0000C0
_spiInit                                              text40       00B374
_spiReceive                                           text48       00C082
_spiSend                                              text47       00BFF0
_spiTransfer                                          text49       00B8FA
_ssd1306_command                                      text145      00BE12
_start_pwm                                            text9        00C0D4
_strchr                                               text74       00B4B0
_strcpy                                               text19       00B810
_strlen                                               text31       00B134
_strncmp                                              text73       009734
_strtof                                               text77       000012
_system_management                                    bssBANK2     0002BA
_temp_management                                      text127      006964
_timer0_preload                                       bssBANK2     000258
_timer1_preload                                       bssBANK2     000254
_timer1_timer_init                                    text6        00BAE4
_toupper                                              text78       00BBD2
_update_SD_tab                                        text116      007D0A
_update_system_data                                   text100      007E6E
_usart_module_init                                    text1        00B324
_valid_usart_rx                                       bssBANK2     000244
_valid_usart_tx                                       bssBANK2     000248
_vfpfcnvrt                                            text14       004A9A
_vfprintf                                             text13       00ADFE
_width                                                bssBANK1     0001B2
_wrap                                                 dataBANK1    0001BC
_write_one_byte_in_eeprom                             text133      00BC00
_write_one_page_in_eeprom                             text130      00AF24
_x_pos                                                dataBANK1    0001BE
_xtoa                                                 text15       007FCC
_y_pos                                                dataBANK1    0001BD
abs@a                                                 cstackBANK1  000146
atoi@n                                                cstackCOMRAM 00000C
atoi@neg                                              cstackCOMRAM 00000B
atoi@s                                                cstackCOMRAM 000007
btemp                                                 temp         00007E
buzzer@activate                                       cstackCOMRAM 000001
dtoa@d                                                cstackBANK1  00015D
dtoa@fp                                               cstackBANK1  00015B
dtoa@i                                                cstackBANK1  000166
dtoa@p                                                cstackBANK1  000161
dtoa@s                                                cstackBANK1  000165
dtoa@w                                                cstackBANK1  000163
efgtoa@c                                              cstackBANK2  0002D5
efgtoa@d                                              cstackBANK3  00038F
efgtoa@e                                              cstackBANK3  000393
efgtoa@f                                              cstackBANK2  0002D1
efgtoa@fp                                             cstackBANK2  0002CF
efgtoa@g                                              cstackBANK3  0003A6
efgtoa@h                                              cstackBANK3  00039B
efgtoa@i                                              cstackBANK3  0003A3
efgtoa@l                                              cstackBANK3  00039F
efgtoa@m                                              cstackBANK3  000391
efgtoa@mode                                           cstackBANK3  00038D
efgtoa@n                                              cstackBANK3  0003AA
efgtoa@ne                                             cstackBANK3  000384
efgtoa@nmode                                          cstackBANK3  00038E
efgtoa@ou                                             cstackBANK3  000395
efgtoa@p                                              cstackBANK3  000386
efgtoa@pp                                             cstackBANK3  00038C
efgtoa@sign                                           cstackBANK3  0003A5
efgtoa@t                                              cstackBANK3  000388
efgtoa@u                                              cstackBANK3  0003AC
efgtoa@w                                              cstackBANK3  000399
end_of_initialization                                 cinit        00A40C
execute_rx_command@command_index                      cstackBANK0  0000EF
execute_rx_command@days                               cstackBANK0  0000F3
execute_rx_command@temperature                        cstackBANK0  0000F5
extract_all_alarms@F3662                              bssBANK2     000200
extract_all_alarms@j                                  cstackBANK0  0000EB
extract_all_alarms@previous_address_counter           cstackBANK0  0000ED
extract_all_alarms@tab2                               cstackBANK0  0000DB
extract_data_for_days@firstBlock                      cstackBANK0  0000E0
extract_data_for_days@i                               cstackBANK0  0000DC
extract_data_for_days@j                               cstackBANK0  0000E4
extract_data_for_days@numWrites                       cstackBANK0  0000DA
extract_data_for_days@number_days                     cstackBANK0  0000D8
floorf@F521                                           bssBANK2     000230
floorf@e                                              cstackBANK1  000175
floorf@m                                              cstackBANK1  000171
floorf@u                                              cstackBANK1  000177
floorf@x                                              cstackBANK1  000167
fputc@c                                               cstackBANK1  000142
fputc@fp                                              cstackBANK1  000144
fputs@c                                               cstackBANK1  00014F
fputs@fp                                              cstackBANK1  00014D
fputs@i                                               cstackBANK1  000150
fputs@s                                               cstackBANK1  00014B
heater_set_mode@state                                 cstackCOMRAM 000003
i2I2C_ReadFromAddress@deviceAddress                   cstackCOMRAM 000005
i2I2C_ReadResult@readback                             cstackCOMRAM 000003
i2I2C_ReadResult@x                                    cstackCOMRAM 000001
i2I2C_WriteByte@temp                                  cstackCOMRAM 000004
i2I2C_WriteByte@theByte                               cstackCOMRAM 000001
i2I2C_WriteByte@x                                     cstackCOMRAM 000002
i2I2C_WriteToAddress@deviceAddress                    cstackCOMRAM 000005
i2I2C_WriteToAddress@temp                             cstackCOMRAM 000006
i2LCD_CMD@CMD                                         cstackCOMRAM 000008
i2LCD_Write_4Bit@Nibble                               cstackCOMRAM 000007
i2SD_ACMD@arg                                         cstackCOMRAM 00000B
i2SD_ACMD@cmd                                         cstackCOMRAM 00000F
i2SD_Command@arg                                      cstackCOMRAM 000004
i2SD_Command@cmd                                      cstackCOMRAM 000009
i2SD_Command@n                                        cstackCOMRAM 000008
i2SD_Command@response                                 cstackCOMRAM 00000A
i2USART_Asynchronous_WriteByte_Blocking@_data         cstackCOMRAM 000001
i2_I2C_Delay                                          text195      00C078
i2_I2C_ReadFromAddress                                text115      00C044
i2_I2C_ReadResult                                     text114      00AB70
i2_I2C_SendOne                                        text188      00BF88
i2_I2C_SendZero                                       text187      00BF72
i2_I2C_Start                                          text190      00BE8C
i2_I2C_Stop                                           text189      00BDD0
i2_I2C_WriteByte                                      text186      00B188
i2_I2C_WriteToAddress                                 text185      00BF5C
i2_LCD_CMD                                            text183      00BEE2
i2_LCD_Write_4Bit                                     text184      00B5E0
i2_SCL_High                                           text194      00C0AA
i2_SCL_Low                                            text193      00C028
i2_SDA_High                                           text192      00C0A2
i2_SDA_Low                                            text191      00C01A
i2_SD_ACMD                                            text86       00BB44
i2_SD_Command                                         text121      00A5F8
i2_USART_Asynchronous_WriteByte_Blocking              text173      00BF18
i2___awdiv                                            text180      009990
i2___awdiv@counter                                    cstackCOMRAM 000005
i2___awdiv@dividend                                   cstackCOMRAM 000001
i2___awdiv@divisor                                    cstackCOMRAM 000003
i2___awdiv@quotient                                   cstackCOMRAM 000007
i2___awdiv@sign                                       cstackCOMRAM 000006
i2___awmod                                            text179      00A014
i2___awmod@counter                                    cstackCOMRAM 000005
i2___awmod@dividend                                   cstackCOMRAM 000001
i2___awmod@divisor                                    cstackCOMRAM 000003
i2___awmod@sign                                       cstackCOMRAM 000006
i2___fladd                                            text161      0045DA
i2___fladd@a                                          cstackCOMRAM 00002C
i2___fladd@aexp                                       cstackCOMRAM 000035
i2___fladd@b                                          cstackCOMRAM 000028
i2___fladd@bexp                                       cstackCOMRAM 000036
i2___fladd@grs                                        cstackCOMRAM 000037
i2___fladd@signs                                      cstackCOMRAM 000034
i2___fldiv                                            text166      005F1E
i2___fldiv@a                                          cstackCOMRAM 000013
i2___fldiv@aexp                                       cstackCOMRAM 000027
i2___fldiv@b                                          cstackCOMRAM 00000F
i2___fldiv@bexp                                       cstackCOMRAM 000026
i2___fldiv@grs                                        cstackCOMRAM 000022
i2___fldiv@new_exp                                    cstackCOMRAM 000020
i2___fldiv@rem                                        cstackCOMRAM 00001B
i2___fldiv@sign                                       cstackCOMRAM 00001F
i2___fleq                                             text165      00A21E
i2___fleq@ff1                                         cstackCOMRAM 000001
i2___fleq@ff2                                         cstackCOMRAM 000005
i2___flge                                             text164      008DD6
i2___flge@ff1                                         cstackCOMRAM 000059
i2___flge@ff2                                         cstackCOMRAM 00005D
i2___flmul                                            text163      005758
i2___flmul@a                                          cstackCOMRAM 000044
i2___flmul@aexp                                       cstackCOMRAM 00004D
i2___flmul@b                                          cstackCOMRAM 000040
i2___flmul@bexp                                       cstackCOMRAM 000052
i2___flmul@grs                                        cstackCOMRAM 00004E
i2___flmul@prod                                       cstackCOMRAM 000053
i2___flmul@sign                                       cstackCOMRAM 00004C
i2___flmul@temp                                       cstackCOMRAM 000057
i2___flneg                                            text162      00B9A2
i2___flneg@f1                                         cstackCOMRAM 000001
i2___flsub                                            text160      00B700
i2___flsub@a                                          cstackCOMRAM 00003C
i2___flsub@b                                          cstackCOMRAM 000038
i2___fltol                                            text159      008CD0
i2___fltol@exp1                                       cstackCOMRAM 000062
i2___fltol@f1                                         cstackCOMRAM 000059
i2___fltol@sign1                                      cstackCOMRAM 000061
i2___fpclassifyf                                      text158      008FDA
i2___fpclassifyf@e                                    cstackCOMRAM 000009
i2___fpclassifyf@u                                    cstackCOMRAM 00000B
i2___fpclassifyf@x                                    cstackCOMRAM 000001
i2___wmul                                             text152      00BD1E
i2___wmul@multiplicand                                cstackCOMRAM 000003
i2___wmul@multiplier                                  cstackCOMRAM 000001
i2___wmul@product                                     cstackCOMRAM 000005
i2___xxtofl                                           text137      0076E6
i2___xxtofl@arg                                       cstackCOMRAM 00000B
i2___xxtofl@exp                                       cstackCOMRAM 00000A
i2___xxtofl@sign                                      cstackCOMRAM 000009
i2___xxtofl@val                                       cstackCOMRAM 000001
i2_abs                                                text174      00BAB0
i2_dtoa                                               text167      00736E
i2_dtoa$3628                                          cstackCOMRAM 000020
i2_efgtoa                                             text153      001B84
i2_efgtoa$3659                                        cstackBANK0  000086
i2_floorf                                             text157      006DCC
i2_fputc                                              text171      009C88
i2_fputs                                              text170      00B78A
i2_initSD                                             text84       002E82
i2_labs                                               text156      00B088
i2_memcpy                                             text155      00B3C4
i2_pad                                                text168      009BCE
i2_printf                                             text147      00BD68
i2_putch                                              text172      00C06E
i2_read_prec_or_width                                 text151      009800
i2_spiInit                                            text85       00B4FC
i2_spiReceive                                         text123      00C09A
i2_spiSend                                            text122      00C064
i2_spiTransfer                                        text124      00BA7C
i2_strcpy                                             text154      00B8C0
i2_strlen                                             text169      00B414
i2_vfpfcnvrt                                          text149      004EF4
i2_vfprintf                                           text148      00AE62
i2_xtoa                                               text150      008268
i2abs@a                                               cstackCOMRAM 000007
i2dtoa@d                                              cstackCOMRAM 00001E
i2dtoa@fp                                             cstackCOMRAM 00001C
i2dtoa@i                                              cstackCOMRAM 000027
i2dtoa@p                                              cstackCOMRAM 000022
i2dtoa@s                                              cstackCOMRAM 000026
i2dtoa@w                                              cstackCOMRAM 000024
i2efgtoa@c                                            cstackCOMRAM 00006B
i2efgtoa@d                                            cstackBANK0  00008B
i2efgtoa@e                                            cstackBANK0  00008F
i2efgtoa@f                                            cstackCOMRAM 000067
i2efgtoa@fp                                           cstackCOMRAM 000065
i2efgtoa@g                                            cstackBANK0  0000A2
i2efgtoa@h                                            cstackBANK0  000097
i2efgtoa@i                                            cstackBANK0  00009F
i2efgtoa@l                                            cstackBANK0  00009B
i2efgtoa@m                                            cstackBANK0  00008D
i2efgtoa@mode                                         cstackBANK0  000089
i2efgtoa@n                                            cstackBANK0  0000A6
i2efgtoa@ne                                           cstackBANK0  000080
i2efgtoa@nmode                                        cstackBANK0  00008A
i2efgtoa@ou                                           cstackBANK0  000091
i2efgtoa@p                                            cstackBANK0  000082
i2efgtoa@pp                                           cstackBANK0  000088
i2efgtoa@sign                                         cstackBANK0  0000A1
i2efgtoa@t                                            cstackBANK0  000084
i2efgtoa@u                                            cstackBANK0  0000A8
i2efgtoa@w                                            cstackBANK0  000095
i2floorf@e                                            cstackCOMRAM 000036
i2floorf@m                                            cstackCOMRAM 000032
i2floorf@u                                            cstackCOMRAM 000038
i2floorf@x                                            cstackCOMRAM 000028
i2fputc@c                                             cstackCOMRAM 000003
i2fputc@fp                                            cstackCOMRAM 000005
i2fputs@c                                             cstackCOMRAM 000010
i2fputs@fp                                            cstackCOMRAM 00000E
i2fputs@i                                             cstackCOMRAM 000011
i2fputs@s                                             cstackCOMRAM 00000C
i2initSD@argument                                     cstackBANK0  000080
i2initSD@arr_response                                 cstackBANK0  00008A
i2initSD@i                                            cstackBANK0  00009A
i2initSD@i_1744                                       cstackBANK0  00009C
i2initSD@i_1745                                       cstackBANK0  00009D
i2initSD@i_1747                                       cstackBANK0  00009B
i2initSD@i_1748                                       cstackBANK0  00009E
i2initSD@i_1751                                       cstackBANK0  00009F
i2initSD@last_OSCCON                                  cstackBANK0  000084
i2initSD@last_OSCTUNE                                 cstackBANK0  000085
i2initSD@response                                     cstackBANK0  0000A4
i2initSD@tempSize                                     cstackBANK0  000086
i2initSD@tempSize_1750                                cstackBANK0  0000A0
i2labs@a                                              cstackCOMRAM 000001
i2memcpy@d                                            cstackCOMRAM 000008
i2memcpy@d1                                           cstackCOMRAM 000001
i2memcpy@n                                            cstackCOMRAM 000005
i2memcpy@s                                            cstackCOMRAM 00000A
i2memcpy@s1                                           cstackCOMRAM 000003
i2memcpy@tmp                                          cstackCOMRAM 000007
i2pad@buf                                             cstackCOMRAM 000015
i2pad@fp                                              cstackCOMRAM 000013
i2pad@i                                               cstackCOMRAM 00001A
i2pad@p                                               cstackCOMRAM 000017
i2printf@ap                                           cstackBANK0  0000D6
i2printf@fmt                                          cstackBANK0  0000B4
i2putch@c                                             cstackCOMRAM 000002
i2read_prec_or_width@ap                               cstackCOMRAM 000009
i2read_prec_or_width@c                                cstackCOMRAM 00000D
i2read_prec_or_width@fmt                              cstackCOMRAM 000007
i2read_prec_or_width@n                                cstackCOMRAM 00000E
i2spiInit@divider                                     cstackCOMRAM 000001
i2spiSend@val                                         cstackCOMRAM 000003
i2spiTransfer@byteToTransfer                          cstackCOMRAM 000002
i2strcpy@d                                            cstackCOMRAM 000005
i2strcpy@dest                                         cstackCOMRAM 000001
i2strcpy@src                                          cstackCOMRAM 000003
i2strlen@a                                            cstackCOMRAM 000003
i2strlen@s                                            cstackCOMRAM 000001
i2vfpfcnvrt@ap                                        cstackCOMRAM 000072
i2vfpfcnvrt@c                                         cstackCOMRAM 000077
i2vfpfcnvrt@convarg                                   cstackCOMRAM 000078
i2vfpfcnvrt@cp                                        cstackCOMRAM 00007C
i2vfpfcnvrt@done                                      cstackCOMRAM 000076
i2vfpfcnvrt@fmt                                       cstackCOMRAM 000070
i2vfpfcnvrt@fp                                        cstackCOMRAM 00006E
i2vfprintf@ap                                         cstackBANK0  0000B0
i2vfprintf@cfmt                                       cstackBANK0  0000B2
i2vfprintf@fmt                                        cstackBANK0  0000AE
i2vfprintf@fp                                         cstackBANK0  0000AC
i2xtoa@c                                              cstackCOMRAM 000027
i2xtoa@d                                              cstackCOMRAM 00001E
i2xtoa@fp                                             cstackCOMRAM 00001C
i2xtoa@i                                              cstackCOMRAM 000028
i2xtoa@p                                              cstackCOMRAM 000023
i2xtoa@w                                              cstackCOMRAM 000025
initSD@F2848                                          bssBANK2     000220
initSD@argument                                       cstackBANK2  0002CF
initSD@arr_response                                   cstackBANK2  0002D9
initSD@i                                              cstackBANK2  0002E9
initSD@i_1744                                         cstackBANK2  0002EB
initSD@i_1745                                         cstackBANK2  0002EC
initSD@i_1747                                         cstackBANK2  0002EA
initSD@i_1748                                         cstackBANK2  0002ED
initSD@i_1751                                         cstackBANK2  0002EE
initSD@last_OSCCON                                    cstackBANK2  0002D3
initSD@last_OSCTUNE                                   cstackBANK2  0002D4
initSD@response                                       cstackBANK2  0002F3
initSD@tempSize                                       cstackBANK2  0002D5
initSD@tempSize_1750                                  cstackBANK2  0002EF
int$flags                                             temp         00007E
int_func                                              intcode_body 0091D2
intlevel0                                             text         000000
intlevel1                                             text         000000
intlevel2                                             text         000000
intlevel3                                             text         000000
isa$std                                               (abs)        000001
isa$xinst                                             (abs)        000000
isdigit@c                                             cstackCOMRAM 000001
isxdigit@c                                            cstackCOMRAM 000001
labs@a                                                cstackBANK1  000140
led_set_mode@psystem_state                            cstackCOMRAM 000001
log_system@F3689                                      bssBANK3     000300
log_system@pSystem_data                               cstackBANK0  0000D8
log_system@tab                                        cstackBANK0  0000DA
memcpy@d                                              cstackBANK1  000147
memcpy@d1                                             cstackBANK1  000140
memcpy@n                                              cstackBANK1  000144
memcpy@s                                              cstackBANK1  000149
memcpy@s1                                             cstackBANK1  000142
memcpy@tmp                                            cstackBANK1  000146
memset@c                                              cstackCOMRAM 000003
memset@dest                                           cstackCOMRAM 000001
memset@n                                              cstackCOMRAM 000005
memset@p                                              cstackCOMRAM 000007
nanf@s                                                cstackCOMRAM 000001
nanf@u                                                cstackCOMRAM 000005
oled_puts@c                                           cstackCOMRAM 00001E
oled_puts@size                                        cstackCOMRAM 000020
pad@buf                                               cstackBANK1  000154
pad@fp                                                cstackBANK1  000152
pad@i                                                 cstackBANK1  000159
pad@p                                                 cstackBANK1  000156
print_temperature@buffer_command                      cstackBANK0  0000DD
print_temperature@buffer_temp                         cstackBANK0  0000D6
print_temperature@command_temp                        cstackBANK0  0000E4
print_temperature@pSystem_data                        cstackBANK0  0000D2
printf@ap                                             cstackBANK2  0002F8
printf@fmt                                            cstackBANK2  0002EC
putch@c                                               cstackBANK1  000141
read_eep_address_in_eeprom@addressH                   cstackBANK1  00014D
read_eep_address_in_eeprom@addressL                   cstackBANK1  00014E
read_init_sd_card@PNM                                 cstackBANK3  0003B8
read_init_sd_card@month                               cstackBANK3  0003B7
read_init_sd_card@year                                cstackBANK3  0003B5
read_one_byte_in_eeprom@address_lower_byte            cstackBANK1  00014A
read_one_byte_in_eeprom@address_upper_byte            cstackBANK1  000149
read_one_byte_in_eeprom@c                             cstackBANK1  000148
read_one_byte_in_eeprom@register_address              cstackBANK1  000146
read_one_page_in_eeprom@address_lower_byte            cstackCOMRAM 00000B
read_one_page_in_eeprom@address_upper_byte            cstackCOMRAM 00000A
read_one_page_in_eeprom@data                          cstackCOMRAM 000009
read_one_page_in_eeprom@i                             cstackCOMRAM 00000C
read_one_page_in_eeprom@register_address              cstackCOMRAM 000007
read_prec_or_width@ap                                 cstackBANK1  000148
read_prec_or_width@c                                  cstackBANK1  00014C
read_prec_or_width@fmt                                cstackBANK1  000146
read_prec_or_width@n                                  cstackBANK1  00014D
read_sd_address_in_eeprom@i                           cstackBANK1  000151
reset_eep_address_in_eeprom@addressH                  cstackCOMRAM 00000E
reset_eep_address_in_eeprom@addressL                  cstackCOMRAM 00000F
reset_sd_address_in_eeprom@i                          cstackCOMRAM 00000D
save_eep_address_in_eeprom@addressH                   cstackCOMRAM 00000D
save_eep_address_in_eeprom@addressL                   cstackCOMRAM 00000E
save_in_eeprom@F3649                                  bssBANK2     000210
save_in_eeprom@i                                      cstackBANK0  0000EC
save_in_eeprom@pSystem_data                           cstackBANK0  0000D8
save_in_eeprom@tab                                    cstackBANK0  0000DC
save_sd_address_in_eeprom@i                           cstackCOMRAM 000011
set_pwm_duty@calcul                                   cstackCOMRAM 00006D
set_pwm_duty@duty                                     cstackCOMRAM 000063
set_pwm_duty@duty1                                    cstackCOMRAM 000069
single_block_write@sector                             cstackBANK0  0000D8
snprintf@ap                                           cstackBANK0  0000C4
snprintf@cnt                                          cstackBANK0  0000C2
snprintf@f                                            cstackBANK0  0000C6
snprintf@fmt                                          cstackBANK0  0000B7
snprintf@n                                            cstackBANK0  0000B5
snprintf@s                                            cstackBANK0  0000B4
spiInit@divider                                       cstackBANK1  000140
spiSend@val                                           cstackBANK1  000142
spiTransfer@byteToTransfer                            cstackBANK1  000141
ssd1306_command@c                                     cstackCOMRAM 000007
stackhi                                               (abs)        000000
stacklo                                               (abs)        000000
start                                                 init         00000E
start_initialization                                  cinit        00A370
strchr@c                                              cstackCOMRAM 000003
strchr@s                                              cstackCOMRAM 000001
strcpy@d                                              cstackBANK1  000144
strcpy@dest                                           cstackBANK1  000140
strcpy@src                                            cstackBANK1  000142
strlen@a                                              cstackBANK1  000142
strlen@s                                              cstackBANK1  000140
strncmp@l                                             cstackCOMRAM 000005
strncmp@n                                             cstackCOMRAM 000009
strncmp@r                                             cstackCOMRAM 000007
strtof@_u                                             cstackCOMRAM 000079
strtof@digit                                          cstackCOMRAM 000073
strtof@dpos                                           cstackCOMRAM 000070
strtof@eexp                                           cstackCOMRAM 000077
strtof@err                                            cstackCOMRAM 000071
strtof@expon                                          cstackCOMRAM 000075
strtof@flags                                          cstackCOMRAM 000074
strtof@i                                              cstackCOMRAM 00007D
strtof@res                                            cstackCOMRAM 000067
strtof@s                                              cstackCOMRAM 000065
strtof@xpos                                           cstackCOMRAM 00006F
temp_management@already_save                          bssBANK0     0000F9
temp_management@command_temp                          cstackBANK0  0000F2
temp_management@pSystem_data                          cstackBANK0  0000EE
timer1_timer_init@timer_obj                           cstackBANK1  000146
toupper@c                                             cstackCOMRAM 000001
ttemp5                                                temp         00007F
ttemp6                                                temp         000082
ttemp7                                                temp         000086
update_SD_tab@F3669                                   bssBANK3     000310
update_SD_tab@counter                                 bssBANK2     000250
update_SD_tab@pSystem_data                            cstackBANK0  0000DE
update_SD_tab@tab                                     cstackBANK0  0000E0
update_system_data@date                               cstackCOMRAM 00006B
update_system_data@pSystem_data                       cstackCOMRAM 000063
update_system_data@temp                               cstackCOMRAM 000067
update_system_data@temp_frac                          cstackCOMRAM 000065
update_system_data@temp_int                           cstackCOMRAM 000066
update_system_data@time                               cstackCOMRAM 00006F
usart_module_init@usart_obj                           cstackBANK2  0002D2
vfpfcnvrt@ap                                          cstackBANK2  0002DA
vfpfcnvrt@c                                           cstackBANK2  0002DD
vfpfcnvrt@convarg                                     cstackBANK2  0002DE
vfpfcnvrt@cp                                          cstackBANK2  0002E2
vfpfcnvrt@done                                        cstackBANK2  0002DC
vfpfcnvrt@fmt                                         cstackBANK2  0002D8
vfpfcnvrt@fp                                          cstackBANK2  0002D6
vfprintf@ap                                           cstackBANK2  0002E8
vfprintf@cfmt                                         cstackBANK2  0002EA
vfprintf@fmt                                          cstackBANK2  0002E6
vfprintf@fp                                           cstackBANK2  0002E4
write_one_byte_in_eeprom@address_lower_byte           cstackCOMRAM 00000B
write_one_byte_in_eeprom@address_upper_byte           cstackCOMRAM 00000A
write_one_byte_in_eeprom@c                            cstackCOMRAM 000009
write_one_byte_in_eeprom@register_address             cstackCOMRAM 000007
write_one_page_in_eeprom@address_lower_byte           cstackCOMRAM 00000B
write_one_page_in_eeprom@address_upper_byte           cstackCOMRAM 00000A
write_one_page_in_eeprom@c                            cstackCOMRAM 000007
write_one_page_in_eeprom@i                            cstackCOMRAM 00000C
write_one_page_in_eeprom@register_address             cstackCOMRAM 000008
wtemp8                                                temp         00007F
xtoa@c                                                cstackBANK1  000166
xtoa@d                                                cstackBANK1  00015D
xtoa@fp                                               cstackBANK1  00015B
xtoa@i                                                cstackBANK1  000167
xtoa@p                                                cstackBANK1  000162
xtoa@w                                                cstackBANK1  000164


MODULE INFORMATION

Module		Function		Class		Link	Load	Size
C:\Program Files\Microchip\xc8\v2.46\pic\sources\c99\common\fltol.c
		___fltol       		CODE           	8AC2	0000	264

C:\Program Files\Microchip\xc8\v2.46\pic\sources\c99\common\fltol.c estimated size: 264

hal_timer1.c
		_Timer1_Mode_Selection		CODE           	A818	0000	128
		_Timer1_Init   		CODE           	A416	0000	164
		_TMR1_ISR      		CODE           	B96A	0000	56

hal_timer1.c estimated size: 348

C:\Program Files\Microchip\xc8\v2.46\pic\sources\c99\common\nf_snprintf.c
		_snprintf      		CODE           	90D8	0000	250

C:\Program Files\Microchip\xc8\v2.46\pic\sources\c99\common\nf_snprintf.c estimated size: 250

hal_usart.c
		_USART_RX_ISR  		CODE           	A70E	0000	134
		_USART_Baud_Rate_Calculation		CODE           	3C10	0000	1288
		_USART_Asynchronous_Restart_RX		CODE           	C0BE	0000	6
		_USART_ASYNCRONOUS_RX_Init		CODE           	94AA	0000	222
		_USART_TX_ISR  		CODE           	BB14	0000	48
		_USART_ASYNCRONOUS_TX_Init		CODE           	9DFA	0000	182
		_USART_Asynchronous_WriteByte_Blocking		CODE           	BEAA	0000	28
		_USART_Asynchronous_Initialize		CODE           	B1DC	0000	82
		_USART_Asynchronous_ReadByte_NonBlocking		CODE           	BCAA	0000	40

hal_usart.c estimated size: 2030

C:\Program Files\Microchip\xc8\v2.46\pic\sources\c99\common\printf.c
		_printf        		CODE           	BC5A	0000	40

C:\Program Files\Microchip\xc8\v2.46\pic\sources\c99\common\printf.c estimated size: 40

AT24C32.c
		_read_one_page_in_eeprom		CODE           	AAFA	0000	118
		_read_one_byte_in_eeprom		CODE           	B7CE	0000	66
		_write_one_page_in_eeprom		CODE           	AF24	0000	92
		_write_one_byte_in_eeprom		CODE           	BC00	0000	46

AT24C32.c estimated size: 322

SD_PIC.c
		_SD_SendDummyBytes		CODE           	BD44	0000	36
		_SD_MBR_Stop   		CODE           	BE50	0000	30
		_SD_MBR_Start  		CODE           	AA82	0000	120
		_SD_MBR_Receive		CODE           	A4BA	0000	160
		_single_block_write		CODE           	A0C4	0000	174
		_SD_SingleBlockWrite		CODE           	93BE	0000	236
		_read_init_sd_card		CODE           	62B8	0000	904
		_initSD        		CODE           	2600	0000	2178
		_SD_EraseBlocks		CODE           	A98E	0000	122
		_SD_Command    		CODE           	A55A	0000	158
		_SD_ACMD       		CODE           	BA10	0000	54

SD_PIC.c estimated size: 4172

C:\Program Files\Microchip\xc8\v2.46\pic\sources\c99\common\floorf.c
		_floorf        		CODE           	6BB6	0000	534

C:\Program Files\Microchip\xc8\v2.46\pic\sources\c99\common\floorf.c estimated size: 534

buzzer.c
		_buzzer        		CODE           	BE6E	0000	30

buzzer.c estimated size: 30

i2c_soft.c
		_I2C_ReadFromAddress		CODE           	BFB2	0000	16
		_SCL_High      		CODE           	C092	0000	8
		_I2C_WriteToAddress		CODE           	BEFE	0000	26
		_I2C_ReadResult_withAck		CODE           	A914	0000	122
		_SDA_Low       		CODE           	BFFE	0000	14
		_I2C_Stop      		CODE           	BD8C	0000	34
		_I2C_WriteByte 		CODE           	AF80	0000	90
		_I2C_SendOne   		CODE           	BF46	0000	22
		_I2C_Delay     		CODE           	C050	0000	10
		_I2C_ReadRegister		CODE           	BCF8	0000	38
		_I2C_SendZero  		CODE           	BF30	0000	22
		_SDA_High      		CODE           	C08A	0000	8
		_I2C_ReadResult		CODE           	A898	0000	124
		_I2C_Start     		CODE           	BE32	0000	30
		_SCL_Low       		CODE           	C00C	0000	14

i2c_soft.c estimated size: 578

C:\Program Files\Microchip\xc8\v2.46\pic\sources\c99\common\nf_fputc.c
		_fputc         		CODE           	9B12	0000	188

C:\Program Files\Microchip\xc8\v2.46\pic\sources\c99\common\nf_fputc.c estimated size: 188

heater.c
		_heater_set_mode		CODE           	B6BA	0000	70

heater.c estimated size: 70

C:\Program Files\Microchip\xc8\v2.46\pic\sources\c99\common\awdiv.c
		___awdiv       		CODE           	98CA	0000	198

C:\Program Files\Microchip\xc8\v2.46\pic\sources\c99\common\awdiv.c estimated size: 198

C:\Program Files\Microchip\xc8\v2.46\pic\sources\c99\common\toupper.c
		_toupper       		CODE           	BBD2	0000	46

C:\Program Files\Microchip\xc8\v2.46\pic\sources\c99\common\toupper.c estimated size: 46

C:\Program Files\Microchip\xc8\v2.46\pic\sources\c99\common\lbmod.c
		___lbmod       		CODE           	BA46	0000	54

C:\Program Files\Microchip\xc8\v2.46\pic\sources\c99\common\lbmod.c estimated size: 54

C:\Program Files\Microchip\xc8\v2.46\pic\sources\c99\common\xxtofl.c
		___xxtofl      		CODE           	752E	0000	440

C:\Program Files\Microchip\xc8\v2.46\pic\sources\c99\common\xxtofl.c estimated size: 440

temp_monitoring.c
		_reset_eep_address_in_eeprom		CODE           	AA08	0000	122
		_save_eep_address_in_eeprom		CODE           	AC54	0000	110
		_read_eep_address_in_eeprom		CODE           	A684	0000	138
		_reset_sd_address_in_eeprom		CODE           	B594	0000	76
		_save_sd_address_in_eeprom		CODE           	A794	0000	132
		_update_SD_tab 		CODE           	7D0A	0000	356
		_save_in_eeprom		CODE           	6FDE	0000	462
		_read_sd_address_in_eeprom		CODE           	A2C8	0000	168
		_log_system    		CODE           	83B6	0000	322
		_extract_data_for_days		CODE           	3698	0000	1400
		_update_system_data		CODE           	7E6E	0000	350
		_extract_all_alarms		CODE           	8892	0000	286
		_temp_management		CODE           	6964	0000	594

temp_monitoring.c estimated size: 4516

C:\Program Files\Microchip\xc8\v2.46\pic\sources\c99\common\nanf.c
		_nanf          		CODE           	BDAE	0000	34

C:\Program Files\Microchip\xc8\v2.46\pic\sources\c99\common\nanf.c estimated size: 34

C:\Program Files\Microchip\xc8\v2.46\pic\sources\c99\common\isxdigit.c
		_isxdigit      		CODE           	B032	0000	86

C:\Program Files\Microchip\xc8\v2.46\pic\sources\c99\common\isxdigit.c estimated size: 86

C:\Program Files\Microchip\xc8\v2.46\pic\sources\c99\common\strlen.c
		_strlen        		CODE           	B134	0000	84

C:\Program Files\Microchip\xc8\v2.46\pic\sources\c99\common\strlen.c estimated size: 84

C:\Program Files\Microchip\xc8\v2.46\pic\sources\c99\common\flneg.c
		___flneg       		CODE           	B84C	0000	58

C:\Program Files\Microchip\xc8\v2.46\pic\sources\c99\common\flneg.c estimated size: 58

C:\Program Files\Microchip\xc8\v2.46\pic\sources\c99\common\strncmp.c
		_strncmp       		CODE           	9734	0000	204

C:\Program Files\Microchip\xc8\v2.46\pic\sources\c99\common\strncmp.c estimated size: 204

C:\Program Files\Microchip\xc8\v2.46\pic\sources\c99\common\__fpclassifyf.c
		___fpclassifyf 		CODE           	8EDA	0000	256

C:\Program Files\Microchip\xc8\v2.46\pic\sources\c99\common\__fpclassifyf.c estimated size: 256

C:\Program Files\Microchip\xc8\v2.46\pic\sources\c99\common\sprcmul.c
		___flmul       		CODE           	532C	0000	1068

C:\Program Files\Microchip\xc8\v2.46\pic\sources\c99\common\sprcmul.c estimated size: 1068

C:\Program Files\Microchip\xc8\v2.46\pic\sources\c99\common\strchr.c
		_strchr        		CODE           	B4B0	0000	76

C:\Program Files\Microchip\xc8\v2.46\pic\sources\c99\common\strchr.c estimated size: 76

C:\Program Files\Microchip\xc8\v2.46\pic\sources\c99\common\strcpy.c
		_strcpy        		CODE           	B810	0000	60

C:\Program Files\Microchip\xc8\v2.46\pic\sources\c99\common\strcpy.c estimated size: 60

C:\Program Files\Microchip\xc8\v2.46\pic\sources\c99\common\memset.c
		_memset        		CODE           	B932	0000	56

C:\Program Files\Microchip\xc8\v2.46\pic\sources\c99\common\memset.c estimated size: 56

C:\Program Files\Microchip\xc8\v2.46\pic\sources\c99\common\sprcdiv.c
		___fldiv       		CODE           	5B82	0000	924

C:\Program Files\Microchip\xc8\v2.46\pic\sources\c99\common\sprcdiv.c estimated size: 924

C:\Program Files\Microchip\xc8\v2.46\pic\sources\c99\common\atoi.c
		_atoi          		CODE           	8772	0000	288

C:\Program Files\Microchip\xc8\v2.46\pic\sources\c99\common\atoi.c estimated size: 288

C:\Program Files\Microchip\xc8\v2.46\pic\sources\c99\common\fleq.c
		___fleq        		CODE           	A172	0000	172

C:\Program Files\Microchip\xc8\v2.46\pic\sources\c99\common\fleq.c estimated size: 172

hal_timer0.c
		_TMR0_ISR      		CODE           	C036	0000	14

hal_timer0.c estimated size: 14

C:\Program Files\Microchip\xc8\v2.46\pic\sources\c99\common\doprnt.c
		_read_prec_or_width		CODE           	9666	0000	206
		_vfpfcnvrt     		CODE           	4A9A	0000	1114
		_efgtoa        		CODE           	1076	0000	2830
		_pad           		CODE           	9A54	0000	190
		_dtoa          		CODE           	71AC	0000	450
		_vfprintf      		CODE           	ADFE	0000	100
		_xtoa          		CODE           	7FCC	0000	334

C:\Program Files\Microchip\xc8\v2.46\pic\sources\c99\common\doprnt.c estimated size: 5224

SPI_PIC.c
		_spiTransfer   		CODE           	B8FA	0000	56
		_spiReceive    		CODE           	C082	0000	8
		_spiInit       		CODE           	B374	0000	80
		_spiSend       		CODE           	BFF0	0000	14

SPI_PIC.c estimated size: 158

PWM.c
		_start_pwm     		CODE           	C0D4	0000	4
		_set_pwm_duty  		CODE           	9588	0000	222

PWM.c estimated size: 226

shared
		_CMD8CRC       		MEDIUMCONST    	0000	0000	0
		i2_printf      		CODE           	BD68	0000	36
		_CMD17         		MEDIUMCONST    	0000	0000	0
		_CMD55         		MEDIUMCONST    	0000	0000	0
		i2_vfpfcnvrt   		CODE           	4EF4	0000	1080
		i2_LCD_Write_4Bit		CODE           	B5E0	0000	74
		i2_pad         		CODE           	9BCE	0000	186
		i2_SCL_Low     		CODE           	C028	0000	14
		i2_abs         		CODE           	BAB0	0000	52
		i2_floorf      		CODE           	6DCC	0000	530
		i2_spiReceive  		CODE           	C09A	0000	8
		i2_labs        		CODE           	B088	0000	86
		_R1_ILLEGAL_COMMAND		MEDIUMCONST    	0000	0000	0
		i2_read_prec_or_width		CODE           	9800	0000	202
		i2_spiInit     		CODE           	B4FC	0000	76
		i2_putch       		CODE           	C06E	0000	10
		i2___fleq      		CODE           	A21E	0000	170
		i2_I2C_Delay   		CODE           	C078	0000	10
		_ACMD22        		MEDIUMCONST    	FD3E	0000	1
		_ACMD41        		MEDIUMCONST    	0000	0000	0
		_START_BLOCK   		MEDIUMCONST    	0000	0000	0
		_CMD12         		MEDIUMCONST    	0000	0000	0
		_CMD8          		MEDIUMCONST    	0000	0000	0
		i2_LCD_CMD     		CODE           	BEE2	0000	28
		_CMD18         		MEDIUMCONST    	0000	0000	0
		_CMD9          		MEDIUMCONST    	0000	0000	0
		i2_SDA_Low     		CODE           	C01A	0000	14
		i2_vfprintf    		CODE           	AE62	0000	98
		i2_I2C_ReadFromAddress		CODE           	C044	0000	12
		i2_xtoa        		CODE           	8268	0000	334
		_CMD0CRC       		MEDIUMCONST    	0000	0000	0
		i2_SCL_High    		CODE           	C0AA	0000	8
		i2___flneg     		CODE           	B9A2	0000	56
		i2_strcpy      		CODE           	B8C0	0000	58
		_R1_READY_STATE		MEDIUMCONST    	0000	0000	0
		_CMD13         		MEDIUMCONST    	FD49	0000	1
		_CMD32         		MEDIUMCONST    	0000	0000	0
		i2___awdiv     		CODE           	9990	0000	196
		i2_spiSend     		CODE           	C064	0000	10
		_CMD38         		MEDIUMCONST    	0000	0000	0
		i2___fladd     		CODE           	45DA	0000	1216
		i2___wmul      		CODE           	BD1E	0000	38
		i2_dtoa        		CODE           	736E	0000	448
		i2___fldiv     		CODE           	5F1E	0000	922
		i2_I2C_WriteToAddress		CODE           	BF5C	0000	22
		i2_I2C_Stop    		CODE           	BDD0	0000	34
		i2___fltol     		CODE           	8CD0	0000	262
		i2_I2C_Start   		CODE           	BE8C	0000	30
		_CMD0          		MEDIUMCONST    	0000	0000	0
		__initialization		CODE           	A370	0000	156
		_ACMD23        		MEDIUMCONST    	0000	0000	0
		_Font2         		MEDIUMCONST    	FC5A	0000	220
		i2___flge      		CODE           	8DD6	0000	260
		_CMD33         		MEDIUMCONST    	0000	0000	0
		i2_SDA_High    		CODE           	C0A2	0000	8
		_CMD58         		MEDIUMCONST    	0000	0000	0
		i2___awmod     		CODE           	A014	0000	176
		i2_I2C_SendOne 		CODE           	BF88	0000	22
		_CMD1          		MEDIUMCONST    	0000	0000	0
		_CMD24         		MEDIUMCONST    	0000	0000	0
		i2___flmul     		CODE           	5758	0000	1066
		i2___xxtofl    		CODE           	76E6	0000	436
		_STOP_TRAN     		MEDIUMCONST    	0000	0000	0
		i2_USART_Asynchronous_WriteByte_Blocking		CODE           	BF18	0000	24
		i2___fpclassifyf		CODE           	8FDA	0000	254
		i2_I2C_SendZero		CODE           	BF72	0000	22
		i2_initSD      		CODE           	2E82	0000	2070
		i2_I2C_WriteByte		CODE           	B188	0000	84
		_R1_IDLE_STATE 		MEDIUMCONST    	0000	0000	0
		_START_BLOCK_TOKEN		MEDIUMCONST    	0000	0000	0
		i2___flsub     		CODE           	B700	0000	70
		_CMD25         		MEDIUMCONST    	0000	0000	0
		i2_efgtoa      		CODE           	1B84	0000	2684
		i2_spiTransfer 		CODE           	BA7C	0000	52
		_CMD10         		MEDIUMCONST    	0000	0000	0
		i2_fputc       		CODE           	9C88	0000	186
		i2_fputs       		CODE           	B78A	0000	68
		_CMD16         		MEDIUMCONST    	0000	0000	0
		i2_strlen      		CODE           	B414	0000	80
		_Font          		MEDIUMCONST    	FB5B	0000	255
		i2_SD_ACMD     		CODE           	BB44	0000	48
		i2_memcpy      		CODE           	B3C4	0000	80
		i2_SD_Command  		CODE           	A5F8	0000	140
		i2_I2C_ReadResult		CODE           	AB70	0000	114

shared estimated size: 14897

C:\Program Files\Microchip\xc8\v2.46\pic\sources\c99\common\Umul16.c
		___wmul        		CODE           	BC82	0000	40

C:\Program Files\Microchip\xc8\v2.46\pic\sources\c99\common\Umul16.c estimated size: 40

C:\Program Files\Microchip\xc8\v2.46\pic\sources\c99\common\strtof.c
		_strtof        		CODE           	0012	0000	4196

C:\Program Files\Microchip\xc8\v2.46\pic\sources\c99\common\strtof.c estimated size: 4196

C:\Program Files\Microchip\xc8\v2.46\pic\sources\c99\common\nf_fputs.c
		_fputs         		CODE           	B672	0000	72

C:\Program Files\Microchip\xc8\v2.46\pic\sources\c99\common\nf_fputs.c estimated size: 72

ds18b20.c
		_OneWireRelease		CODE           	C0C4	0000	6
		_OneWireReadBit		CODE           	BCD2	0000	38
		_OneWireReadByte		CODE           	B548	0000	76
		_OneWireWriteBit		CODE           	B746	0000	68
		_print_temperature		CODE           	7B9A	0000	368
		_OneWireRead   		CODE           	BF9E	0000	20
		_OneWireHigh   		CODE           	C0CA	0000	6
		_OneWireTemp   		CODE           	9F62	0000	178
		_OneWireReset  		CODE           	B280	0000	82
		_OneWireWriteByte		CODE           	B886	0000	58

ds18b20.c estimated size: 900

C:\Program Files\Microchip\xc8\v2.46\pic\sources\c99\common\isdigit.c
		_isdigit       		CODE           	BC2E	0000	44

C:\Program Files\Microchip\xc8\v2.46\pic\sources\c99\common\isdigit.c estimated size: 44

./ssd1306_unbuffered.h
		_ssd1306_command		CODE           	BE12	0000	32
		_SSD1306_Init  		CODE           	92C8	0000	246
		_SSD1306_ClearDisplay		CODE           	AEC4	0000	96
		_SSD1306_GotoXY		CODE           	BB74	0000	48
		_SSD1306_PutStretchC		CODE           	6640	0000	804
		_oled_puts     		CODE           	AD98	0000	102

./ssd1306_unbuffered.h estimated size: 1328

C:\Program Files\Microchip\xc8\v2.46\pic\sources\c99\common\sprcadd.c
		___flsub       		CODE           	B62A	0000	72
		___fladd       		CODE           	4118	0000	1218

C:\Program Files\Microchip\xc8\v2.46\pic\sources\c99\common\sprcadd.c estimated size: 1290

lcd.c
		_LCD_Init      		CODE           	89B0	0000	274
		_LCD_Write_4Bit		CODE           	B464	0000	76
		_LCD_Write_Char		CODE           	BEC6	0000	28
		_LCD_CMD       		CODE           	BDF2	0000	32
		_LCD_Set_Cursor		CODE           	B0DE	0000	86
		_LCD_Clear     		CODE           	BFD2	0000	16

lcd.c estimated size: 512

C:\Program Files\Microchip\xc8\v2.46\pic\sources\c99\common\memcpy.c
		_memcpy        		CODE           	B22E	0000	82

C:\Program Files\Microchip\xc8\v2.46\pic\sources\c99\common\memcpy.c estimated size: 82

C:\Program Files\Microchip\xc8\v2.46\pic\sources\c99\common\labs.c
		_labs          		CODE           	AFDA	0000	88

C:\Program Files\Microchip\xc8\v2.46\pic\sources\c99\common\labs.c estimated size: 88

C:\Program Files\Microchip\xc8\v2.46\pic\sources\c99\common\abs.c
		_abs           		CODE           	B9DA	0000	54

C:\Program Files\Microchip\xc8\v2.46\pic\sources\c99\common\abs.c estimated size: 54

C:\Program Files\Microchip\xc8\v2.46\pic\sources\c99\common\awmod.c
		___awmod       		CODE           	9EB0	0000	178

C:\Program Files\Microchip\xc8\v2.46\pic\sources\c99\common\awmod.c estimated size: 178

mcal_interrupt_manager.c
		_InterruptManager		CODE           	0008	0000	252

mcal_interrupt_manager.c estimated size: 252

main.c
		_USART_OverrunDefaultErrorHandler		CODE           	C0B8	0000	6
		_timer1_timer_init		CODE           	BAE4	0000	48
		_putch         		CODE           	BFE2	0000	14
		_main          		CODE           	BBA4	0000	46
		_Timer1_DefaultInterruptHandler		CODE           	811A	0000	334
		_USART_RxDefaultInterruptHandler		CODE           	84F8	0000	318
		_execute_rx_command		CODE           	8636	0000	316
		_usart_module_init		CODE           	B324	0000	80
		_USART_FramingDefaultErrorHandler		CODE           	C05A	0000	10
		_USART_TxDefaultInterruptHandler		CODE           	BFC2	0000	16

main.c estimated size: 1188

RTC.c
		_DisplayDateOnLCD		CODE           	7A20	0000	378
		_DisplayTimeToLCD		CODE           	789A	0000	390
		_Get_DS1307_RTC_Date		CODE           	ACC2	0000	108
		_Read_Bytes_From_DS1307_RTC		CODE           	B2D2	0000	82
		_Get_DS1307_RTC_Time		CODE           	9D42	0000	184

RTC.c estimated size: 1142

C:\Program Files\Microchip\xc8\v2.46\pic\sources\c99\common\Umul32.c
		___lmul        		CODE           	AD2E	0000	106

C:\Program Files\Microchip\xc8\v2.46\pic\sources\c99\common\Umul32.c estimated size: 106

led.c
		_led_set_mode  		CODE           	ABE2	0000	114

led.c estimated size: 114

C:\Program Files\Microchip\xc8\v2.46\pic\sources\c99\common\flge.c
		___flge        		CODE           	8BCA	0000	262

C:\Program Files\Microchip\xc8\v2.46\pic\sources\c99\common\flge.c estimated size: 262

